	.cpu cortex-m4
	.arch armv7e-m
	.fpu fpv4-sp-d16
	.eabi_attribute 27, 1
	.eabi_attribute 28, 1
	.eabi_attribute 20, 1
	.eabi_attribute 21, 1
	.eabi_attribute 23, 3
	.eabi_attribute 24, 1
	.eabi_attribute 25, 1
	.eabi_attribute 26, 1
	.eabi_attribute 30, 6
	.eabi_attribute 34, 1
	.eabi_attribute 18, 4
	.file	"main.c"
	.text
.Ltext0:
	.cfi_sections	.debug_frame
	.global	RCC_CR
	.data
	.align	2
	.type	RCC_CR, %object
	.size	RCC_CR, 4
RCC_CR:
	.word	1073887232
	.global	RCC_PLLCFGR
	.align	2
	.type	RCC_PLLCFGR, %object
	.size	RCC_PLLCFGR, 4
RCC_PLLCFGR:
	.word	1073887236
	.global	RCC_CFGR
	.align	2
	.type	RCC_CFGR, %object
	.size	RCC_CFGR, 4
RCC_CFGR:
	.word	1073887240
	.global	RCC_AHB1ENR
	.align	2
	.type	RCC_AHB1ENR, %object
	.size	RCC_AHB1ENR, 4
RCC_AHB1ENR:
	.word	1073887280
	.global	RCC_APB2ENR
	.align	2
	.type	RCC_APB2ENR, %object
	.size	RCC_APB2ENR, 4
RCC_APB2ENR:
	.word	1073887300
	.global	RCC_APB1ENR
	.align	2
	.type	RCC_APB1ENR, %object
	.size	RCC_APB1ENR, 4
RCC_APB1ENR:
	.word	1073887296
	.global	GPIOB_MODER
	.align	2
	.type	GPIOB_MODER, %object
	.size	GPIOB_MODER, 4
GPIOB_MODER:
	.word	1073873920
	.global	GPIOB_OTYPER
	.align	2
	.type	GPIOB_OTYPER, %object
	.size	GPIOB_OTYPER, 4
GPIOB_OTYPER:
	.word	1073873924
	.global	GPIOB_ODR
	.align	2
	.type	GPIOB_ODR, %object
	.size	GPIOB_ODR, 4
GPIOB_ODR:
	.word	1073873940
	.global	GPIOB_PUPDR
	.align	2
	.type	GPIOB_PUPDR, %object
	.size	GPIOB_PUPDR, 4
GPIOB_PUPDR:
	.word	1073873932
	.global	GPIOB_AFRL
	.align	2
	.type	GPIOB_AFRL, %object
	.size	GPIOB_AFRL, 4
GPIOB_AFRL:
	.word	1073873952
	.global	GPIOB_AFRH
	.align	2
	.type	GPIOB_AFRH, %object
	.size	GPIOB_AFRH, 4
GPIOB_AFRH:
	.word	1073873956
	.global	GPIOA_MODER
	.align	2
	.type	GPIOA_MODER, %object
	.size	GPIOA_MODER, 4
GPIOA_MODER:
	.word	1073872896
	.global	GPIOA_OTYPER
	.align	2
	.type	GPIOA_OTYPER, %object
	.size	GPIOA_OTYPER, 4
GPIOA_OTYPER:
	.word	1073872900
	.global	GPIOA_ODR
	.align	2
	.type	GPIOA_ODR, %object
	.size	GPIOA_ODR, 4
GPIOA_ODR:
	.word	1073872916
	.global	GPIOA_PUPDR
	.align	2
	.type	GPIOA_PUPDR, %object
	.size	GPIOA_PUPDR, 4
GPIOA_PUPDR:
	.word	1073872908
	.global	GPIOA_AFRL
	.align	2
	.type	GPIOA_AFRL, %object
	.size	GPIOA_AFRL, 4
GPIOA_AFRL:
	.word	1073872928
	.global	TIM10_CR1
	.align	2
	.type	TIM10_CR1, %object
	.size	TIM10_CR1, 4
TIM10_CR1:
	.word	1073824768
	.global	TIM10_CNT
	.align	2
	.type	TIM10_CNT, %object
	.size	TIM10_CNT, 4
TIM10_CNT:
	.word	1073824804
	.global	TIM10_PSC
	.align	2
	.type	TIM10_PSC, %object
	.size	TIM10_PSC, 4
TIM10_PSC:
	.word	1073824808
	.global	TIM10_ARR
	.align	2
	.type	TIM10_ARR, %object
	.size	TIM10_ARR, 4
TIM10_ARR:
	.word	1073824812
	.global	TIM10_SR
	.align	2
	.type	TIM10_SR, %object
	.size	TIM10_SR, 4
TIM10_SR:
	.word	1073824784
	.global	TIM10_EGR
	.align	2
	.type	TIM10_EGR, %object
	.size	TIM10_EGR, 4
TIM10_EGR:
	.word	1073824788
	.global	TIM10_DIER
	.align	2
	.type	TIM10_DIER, %object
	.size	TIM10_DIER, 4
TIM10_DIER:
	.word	1073824780
	.global	TIM10_CCMR1
	.align	2
	.type	TIM10_CCMR1, %object
	.size	TIM10_CCMR1, 4
TIM10_CCMR1:
	.word	1073824792
	.global	TIM10_CCR1
	.align	2
	.type	TIM10_CCR1, %object
	.size	TIM10_CCR1, 4
TIM10_CCR1:
	.word	1073824820
	.global	TIM10_CCER
	.align	2
	.type	TIM10_CCER, %object
	.size	TIM10_CCER, 4
TIM10_CCER:
	.word	1073824800
	.global	NVIC_ISER
	.align	2
	.type	NVIC_ISER, %object
	.size	NVIC_ISER, 4
NVIC_ISER:
	.word	-536813312
	.global	NVIC_ICER
	.align	2
	.type	NVIC_ICER, %object
	.size	NVIC_ICER, 4
NVIC_ICER:
	.word	-536813184
	.global	NVIC_ISPR
	.align	2
	.type	NVIC_ISPR, %object
	.size	NVIC_ISPR, 4
NVIC_ISPR:
	.word	-536813056
	.global	NVIC_ICPR
	.align	2
	.type	NVIC_ICPR, %object
	.size	NVIC_ICPR, 4
NVIC_ICPR:
	.word	-536812928
	.global	NVIC_IABR
	.align	2
	.type	NVIC_IABR, %object
	.size	NVIC_IABR, 4
NVIC_IABR:
	.word	-536812800
	.global	NVIC_IPR
	.align	2
	.type	NVIC_IPR, %object
	.size	NVIC_IPR, 4
NVIC_IPR:
	.word	-536812544
	.global	USART2_SR
	.align	2
	.type	USART2_SR, %object
	.size	USART2_SR, 4
USART2_SR:
	.word	1073759232
	.global	USART2_DR
	.align	2
	.type	USART2_DR, %object
	.size	USART2_DR, 4
USART2_DR:
	.word	1073759236
	.global	USART2_BRR
	.align	2
	.type	USART2_BRR, %object
	.size	USART2_BRR, 4
USART2_BRR:
	.word	1073759240
	.global	USART2_CR1
	.align	2
	.type	USART2_CR1, %object
	.size	USART2_CR1, 4
USART2_CR1:
	.word	1073759244
	.global	USART2_CR2
	.align	2
	.type	USART2_CR2, %object
	.size	USART2_CR2, 4
USART2_CR2:
	.word	1073759248
	.global	USART2_CR3
	.align	2
	.type	USART2_CR3, %object
	.size	USART2_CR3, 4
USART2_CR3:
	.word	1073759252
	.global	USART2_GTPR
	.align	2
	.type	USART2_GTPR, %object
	.size	USART2_GTPR, 4
USART2_GTPR:
	.word	1073759256
	.text
	.align	1
	.global	main
	.syntax unified
	.thumb
	.thumb_func
	.type	main, %function
main:
.LFB0:
	.file 1 "main.c"
	.loc 1 71 1
	.cfi_startproc
	@ args = 0, pretend = 0, frame = 8
	@ frame_needed = 1, uses_anonymous_args = 0
	push	{r7, lr}
	.cfi_def_cfa_offset 8
	.cfi_offset 7, -8
	.cfi_offset 14, -4
	sub	sp, sp, #8
	.cfi_def_cfa_offset 16
	add	r7, sp, #0
	.cfi_def_cfa_register 7
	.loc 1 73 6
	bl	RCC_CONFIG
	.loc 1 74 6
	bl	GPIO_CONFIG
	.loc 1 75 6
	bl	USART2_INIT
.L2:
	.loc 1 79 11 discriminator 1
	bl	USART2_RX
	mov	r3, r0
	.loc 1 79 9 discriminator 1
	str	r3, [r7, #4]
	.loc 1 80 6 discriminator 1
	ldr	r3, [r7, #4]
	uxtb	r3, r3
	mov	r0, r3
	bl	USART2_TX
	.loc 1 79 9 discriminator 1
	b	.L2
	.cfi_endproc
.LFE0:
	.size	main, .-main
	.align	1
	.global	RCC_CONFIG
	.syntax unified
	.thumb
	.thumb_func
	.type	RCC_CONFIG, %function
RCC_CONFIG:
.LFB1:
	.loc 1 85 1
	.cfi_startproc
	@ args = 0, pretend = 0, frame = 0
	@ frame_needed = 1, uses_anonymous_args = 0
	@ link register save eliminated.
	push	{r7}
	.cfi_def_cfa_offset 4
	.cfi_offset 7, -4
	add	r7, sp, #0
	.cfi_def_cfa_register 7
	.loc 1 86 22
	ldr	r3, .L5
	ldr	r3, [r3]
	ldr	r2, [r3]
	.loc 1 86 7
	ldr	r3, .L5
	ldr	r3, [r3]
	.loc 1 86 35
	orr	r2, r2, #4
	.loc 1 86 20
	str	r2, [r3]
	.loc 1 87 22
	ldr	r3, .L5
	ldr	r3, [r3]
	ldr	r2, [r3]
	.loc 1 87 7
	ldr	r3, .L5
	ldr	r3, [r3]
	.loc 1 87 35
	orr	r2, r2, #2
	.loc 1 87 20
	str	r2, [r3]
	.loc 1 88 22
	ldr	r3, .L5
	ldr	r3, [r3]
	ldr	r2, [r3]
	.loc 1 88 7
	ldr	r3, .L5
	ldr	r3, [r3]
	.loc 1 88 35
	orr	r2, r2, #1
	.loc 1 88 20
	str	r2, [r3]
	.loc 1 90 17
	ldr	r3, .L5+4
	ldr	r3, [r3]
	ldr	r2, [r3]
	.loc 1 90 7
	ldr	r3, .L5+4
	ldr	r3, [r3]
	.loc 1 90 25
	bic	r2, r2, #65536
	.loc 1 90 15
	str	r2, [r3]
	.loc 1 91 17
	ldr	r3, .L5+4
	ldr	r3, [r3]
	ldr	r2, [r3]
	.loc 1 91 7
	ldr	r3, .L5+4
	ldr	r3, [r3]
	.loc 1 91 25
	orr	r2, r2, #65536
	.loc 1 91 15
	str	r2, [r3]
	.loc 1 92 12
	nop
.L4:
	.loc 1 92 14 discriminator 1
	ldr	r3, .L5+4
	ldr	r3, [r3]
	ldr	r3, [r3]
	.loc 1 92 22 discriminator 1
	and	r3, r3, #131072
	.loc 1 92 12 discriminator 1
	cmp	r3, #0
	beq	.L4
	.loc 1 94 19
	ldr	r3, .L5+8
	ldr	r3, [r3]
	ldr	r2, [r3]
	.loc 1 94 7
	ldr	r3, .L5+8
	ldr	r3, [r3]
	.loc 1 94 29
	bic	r2, r2, #3
	.loc 1 94 17
	str	r2, [r3]
	.loc 1 95 19
	ldr	r3, .L5+8
	ldr	r3, [r3]
	ldr	r2, [r3]
	.loc 1 95 7
	ldr	r3, .L5+8
	ldr	r3, [r3]
	.loc 1 95 29
	orr	r2, r2, #1
	.loc 1 95 17
	str	r2, [r3]
	.loc 1 96 12
	nop
	.loc 1 96 15
	ldr	r3, .L5+8
	ldr	r3, [r3]
	ldr	r3, [r3]
	.loc 1 98 22
	ldr	r3, .L5+12
	ldr	r3, [r3]
	ldr	r2, [r3]
	.loc 1 98 7
	ldr	r3, .L5+12
	ldr	r3, [r3]
	.loc 1 98 35
	orr	r2, r2, #131072
	.loc 1 98 20
	str	r2, [r3]
	.loc 1 100 22
	ldr	r3, .L5+16
	ldr	r3, [r3]
	ldr	r2, [r3]
	.loc 1 100 7
	ldr	r3, .L5+16
	ldr	r3, [r3]
	.loc 1 100 34
	orr	r2, r2, #131072
	.loc 1 100 20
	str	r2, [r3]
	.loc 1 101 1
	nop
	mov	sp, r7
	.cfi_def_cfa_register 13
	@ sp needed
	ldr	r7, [sp], #4
	.cfi_restore 7
	.cfi_def_cfa_offset 0
	bx	lr
.L6:
	.align	2
.L5:
	.word	RCC_AHB1ENR
	.word	RCC_CR
	.word	RCC_CFGR
	.word	RCC_APB2ENR
	.word	RCC_APB1ENR
	.cfi_endproc
.LFE1:
	.size	RCC_CONFIG, .-RCC_CONFIG
	.align	1
	.global	GPIO_CONFIG
	.syntax unified
	.thumb
	.thumb_func
	.type	GPIO_CONFIG, %function
GPIO_CONFIG:
.LFB2:
	.loc 1 103 1
	.cfi_startproc
	@ args = 0, pretend = 0, frame = 0
	@ frame_needed = 1, uses_anonymous_args = 0
	@ link register save eliminated.
	push	{r7}
	.cfi_def_cfa_offset 4
	.cfi_offset 7, -4
	add	r7, sp, #0
	.cfi_def_cfa_register 7
	.loc 1 104 23
	ldr	r3, .L8
	ldr	r3, [r3]
	ldr	r2, [r3]
	.loc 1 104 8
	ldr	r3, .L8
	ldr	r3, [r3]
	.loc 1 104 36
	bic	r2, r2, #240
	.loc 1 104 21
	str	r2, [r3]
	.loc 1 105 23
	ldr	r3, .L8
	ldr	r3, [r3]
	ldr	r2, [r3]
	.loc 1 105 8
	ldr	r3, .L8
	ldr	r3, [r3]
	.loc 1 105 36
	orr	r2, r2, #160
	.loc 1 105 21
	str	r2, [r3]
	.loc 1 107 38
	ldr	r3, .L8+4
	ldr	r2, [r3]
	.loc 1 107 8
	ldr	r3, .L8+4
	ldr	r3, [r3]
	.loc 1 107 38
	ldr	r2, [r2]
	.loc 1 107 22
	str	r2, [r3]
	.loc 1 109 23
	ldr	r3, .L8+8
	ldr	r3, [r3]
	ldr	r2, [r3]
	.loc 1 109 8
	ldr	r3, .L8+8
	ldr	r3, [r3]
	.loc 1 109 36
	bic	r2, r2, #240
	.loc 1 109 21
	str	r2, [r3]
	.loc 1 111 22
	ldr	r3, .L8+12
	ldr	r3, [r3]
	ldr	r2, [r3]
	.loc 1 111 8
	ldr	r3, .L8+12
	ldr	r3, [r3]
	.loc 1 111 34
	bic	r2, r2, #3840
	.loc 1 111 20
	str	r2, [r3]
	.loc 1 112 22
	ldr	r3, .L8+12
	ldr	r3, [r3]
	ldr	r2, [r3]
	.loc 1 112 8
	ldr	r3, .L8+12
	ldr	r3, [r3]
	.loc 1 112 34
	orr	r2, r2, #1792
	.loc 1 112 20
	str	r2, [r3]
	.loc 1 114 22
	ldr	r3, .L8+12
	ldr	r3, [r3]
	ldr	r2, [r3]
	.loc 1 114 8
	ldr	r3, .L8+12
	ldr	r3, [r3]
	.loc 1 114 34
	bic	r2, r2, #61440
	.loc 1 114 20
	str	r2, [r3]
	.loc 1 115 22
	ldr	r3, .L8+12
	ldr	r3, [r3]
	ldr	r2, [r3]
	.loc 1 115 8
	ldr	r3, .L8+12
	ldr	r3, [r3]
	.loc 1 115 34
	orr	r2, r2, #28672
	.loc 1 115 20
	str	r2, [r3]
	.loc 1 116 1
	nop
	mov	sp, r7
	.cfi_def_cfa_register 13
	@ sp needed
	ldr	r7, [sp], #4
	.cfi_restore 7
	.cfi_def_cfa_offset 0
	bx	lr
.L9:
	.align	2
.L8:
	.word	GPIOA_MODER
	.word	GPIOA_OTYPER
	.word	GPIOA_PUPDR
	.word	GPIOA_AFRL
	.cfi_endproc
.LFE2:
	.size	GPIO_CONFIG, .-GPIO_CONFIG
	.align	1
	.global	USART2_INIT
	.syntax unified
	.thumb
	.thumb_func
	.type	USART2_INIT, %function
USART2_INIT:
.LFB3:
	.loc 1 118 1
	.cfi_startproc
	@ args = 0, pretend = 0, frame = 0
	@ frame_needed = 1, uses_anonymous_args = 0
	@ link register save eliminated.
	push	{r7}
	.cfi_def_cfa_offset 4
	.cfi_offset 7, -4
	add	r7, sp, #0
	.cfi_def_cfa_register 7
	.loc 1 120 16
	ldr	r3, .L11
	ldr	r3, [r3]
	ldr	r2, [r3]
	.loc 1 120 2
	ldr	r3, .L11
	ldr	r3, [r3]
	.loc 1 120 28
	orr	r2, r2, #8192
	.loc 1 120 14
	str	r2, [r3]
	.loc 1 122 16
	ldr	r3, .L11+4
	ldr	r3, [r3]
	ldr	r3, [r3]
	.loc 1 122 2
	ldr	r2, .L11+4
	ldr	r2, [r2]
	.loc 1 122 28
	bic	r3, r3, #65280
	bic	r3, r3, #240
	.loc 1 122 14
	str	r3, [r2]
	.loc 1 124 16
	ldr	r3, .L11+4
	ldr	r3, [r3]
	ldr	r3, [r3]
	.loc 1 124 2
	ldr	r2, .L11+4
	ldr	r2, [r2]
	.loc 1 124 28
	orr	r3, r3, #5184
	orr	r3, r3, #16
	.loc 1 124 14
	str	r3, [r2]
	.loc 1 126 16
	ldr	r3, .L11+4
	ldr	r3, [r3]
	ldr	r2, [r3]
	.loc 1 126 2
	ldr	r3, .L11+4
	ldr	r3, [r3]
	.loc 1 126 28
	bic	r2, r2, #15
	.loc 1 126 14
	str	r2, [r3]
	.loc 1 128 23
	ldr	r3, .L11+4
	ldr	r3, [r3]
	ldr	r2, [r3]
	.loc 1 128 9
	ldr	r3, .L11+4
	ldr	r3, [r3]
	.loc 1 128 34
	orr	r2, r2, #4
	.loc 1 128 21
	str	r2, [r3]
	.loc 1 130 16
	ldr	r3, .L11
	ldr	r3, [r3]
	ldr	r2, [r3]
	.loc 1 130 2
	ldr	r3, .L11
	ldr	r3, [r3]
	.loc 1 130 28
	orr	r2, r2, #32768
	.loc 1 130 14
	str	r2, [r3]
	.loc 1 132 16
	ldr	r3, .L11
	ldr	r3, [r3]
	ldr	r2, [r3]
	.loc 1 132 2
	ldr	r3, .L11
	ldr	r3, [r3]
	.loc 1 132 28
	bic	r2, r2, #4096
	.loc 1 132 14
	str	r2, [r3]
	.loc 1 134 16
	ldr	r3, .L11
	ldr	r3, [r3]
	ldr	r2, [r3]
	.loc 1 134 2
	ldr	r3, .L11
	ldr	r3, [r3]
	.loc 1 134 28
	orr	r2, r2, #4
	.loc 1 134 14
	str	r2, [r3]
	.loc 1 136 23
	ldr	r3, .L11
	ldr	r3, [r3]
	ldr	r2, [r3]
	.loc 1 136 9
	ldr	r3, .L11
	ldr	r3, [r3]
	.loc 1 136 35
	orr	r2, r2, #8
	.loc 1 136 21
	str	r2, [r3]
	.loc 1 137 1
	nop
	mov	sp, r7
	.cfi_def_cfa_register 13
	@ sp needed
	ldr	r7, [sp], #4
	.cfi_restore 7
	.cfi_def_cfa_offset 0
	bx	lr
.L12:
	.align	2
.L11:
	.word	USART2_CR1
	.word	USART2_BRR
	.cfi_endproc
.LFE3:
	.size	USART2_INIT, .-USART2_INIT
	.align	1
	.global	USART2_RX
	.syntax unified
	.thumb
	.thumb_func
	.type	USART2_RX, %function
USART2_RX:
.LFB4:
	.loc 1 139 1
	.cfi_startproc
	@ args = 0, pretend = 0, frame = 0
	@ frame_needed = 1, uses_anonymous_args = 0
	@ link register save eliminated.
	push	{r7}
	.cfi_def_cfa_offset 4
	.cfi_offset 7, -4
	add	r7, sp, #0
	.cfi_def_cfa_register 7
	.loc 1 141 8
	nop
.L14:
	.loc 1 141 11 discriminator 1
	ldr	r3, .L16
	ldr	r3, [r3]
	ldr	r3, [r3]
	.loc 1 141 22 discriminator 1
	and	r3, r3, #32
	.loc 1 141 8 discriminator 1
	cmp	r3, #0
	beq	.L14
	.loc 1 142 18
	ldr	r3, .L16+4
	ldr	r3, [r3]
	ldr	r3, [r3]
	uxtb	r3, r3
	.loc 1 144 1
	mov	r0, r3
	mov	sp, r7
	.cfi_def_cfa_register 13
	@ sp needed
	ldr	r7, [sp], #4
	.cfi_restore 7
	.cfi_def_cfa_offset 0
	bx	lr
.L17:
	.align	2
.L16:
	.word	USART2_SR
	.word	USART2_DR
	.cfi_endproc
.LFE4:
	.size	USART2_RX, .-USART2_RX
	.align	1
	.global	USART2_TX
	.syntax unified
	.thumb
	.thumb_func
	.type	USART2_TX, %function
USART2_TX:
.LFB5:
	.loc 1 147 1
	.cfi_startproc
	@ args = 0, pretend = 0, frame = 8
	@ frame_needed = 1, uses_anonymous_args = 0
	@ link register save eliminated.
	push	{r7}
	.cfi_def_cfa_offset 4
	.cfi_offset 7, -4
	sub	sp, sp, #12
	.cfi_def_cfa_offset 16
	add	r7, sp, #0
	.cfi_def_cfa_register 7
	mov	r3, r0
	strb	r3, [r7, #7]
	.loc 1 148 15
	ldr	r3, .L21
	ldr	r3, [r3]
	ldr	r2, [r3]
	.loc 1 148 2
	ldr	r3, .L21
	ldr	r3, [r3]
	.loc 1 148 26
	bic	r2, r2, #64
	.loc 1 148 13
	str	r2, [r3]
	.loc 1 150 7
	nop
.L19:
	.loc 1 150 10 discriminator 1
	ldr	r3, .L21
	ldr	r3, [r3]
	ldr	r3, [r3]
	.loc 1 150 21 discriminator 1
	and	r3, r3, #128
	.loc 1 150 7 discriminator 1
	cmp	r3, #0
	beq	.L19
	.loc 1 151 9
	ldr	r3, .L21+4
	ldr	r3, [r3]
	.loc 1 151 19
	ldrb	r2, [r7, #7]	@ zero_extendqisi2
	str	r2, [r3]
	.loc 1 153 2
	ldr	r3, .L21+4
	ldr	r3, [r3]
	.loc 1 153 12
	ldrb	r2, [r7, #7]	@ zero_extendqisi2
	str	r2, [r3]
	.loc 1 154 7
	nop
.L20:
	.loc 1 154 10 discriminator 1
	ldr	r3, .L21
	ldr	r3, [r3]
	ldr	r3, [r3]
	.loc 1 154 21 discriminator 1
	and	r3, r3, #64
	.loc 1 154 7 discriminator 1
	cmp	r3, #0
	beq	.L20
	.loc 1 157 1
	nop
	nop
	adds	r7, r7, #12
	.cfi_def_cfa_offset 4
	mov	sp, r7
	.cfi_def_cfa_register 13
	@ sp needed
	ldr	r7, [sp], #4
	.cfi_restore 7
	.cfi_def_cfa_offset 0
	bx	lr
.L22:
	.align	2
.L21:
	.word	USART2_SR
	.word	USART2_DR
	.cfi_endproc
.LFE5:
	.size	USART2_TX, .-USART2_TX
	.align	1
	.global	print
	.syntax unified
	.thumb
	.thumb_func
	.type	print, %function
print:
.LFB6:
	.loc 1 159 1
	.cfi_startproc
	@ args = 0, pretend = 0, frame = 8
	@ frame_needed = 1, uses_anonymous_args = 0
	push	{r7, lr}
	.cfi_def_cfa_offset 8
	.cfi_offset 7, -8
	.cfi_offset 14, -4
	sub	sp, sp, #8
	.cfi_def_cfa_offset 16
	add	r7, sp, #0
	.cfi_def_cfa_register 7
	str	r0, [r7, #4]
	.loc 1 160 7
	b	.L24
.L25:
	.loc 1 163 15
	ldr	r3, [r7, #4]
	adds	r2, r3, #1
	str	r2, [r7, #4]
	.loc 1 163 3
	ldrb	r3, [r3]	@ zero_extendqisi2
	mov	r0, r3
	bl	USART2_TX
.L24:
	.loc 1 160 8
	ldr	r3, [r7, #4]
	ldrb	r3, [r3]	@ zero_extendqisi2
	.loc 1 160 7
	cmp	r3, #0
	bne	.L25
	.loc 1 165 1
	nop
	nop
	adds	r7, r7, #8
	.cfi_def_cfa_offset 8
	mov	sp, r7
	.cfi_def_cfa_register 13
	@ sp needed
	pop	{r7, pc}
	.cfi_endproc
.LFE6:
	.size	print, .-print
	.align	1
	.global	delay
	.syntax unified
	.thumb
	.thumb_func
	.type	delay, %function
delay:
.LFB7:
	.loc 1 167 1
	.cfi_startproc
	@ args = 0, pretend = 0, frame = 8
	@ frame_needed = 1, uses_anonymous_args = 0
	@ link register save eliminated.
	push	{r7}
	.cfi_def_cfa_offset 4
	.cfi_offset 7, -4
	sub	sp, sp, #12
	.cfi_def_cfa_offset 16
	add	r7, sp, #0
	.cfi_def_cfa_register 7
	.loc 1 169 24
	movs	r3, #0
	str	r3, [r7, #4]
	.loc 1 170 7
	movs	r3, #0
	str	r3, [r7, #4]
	.loc 1 170 2
	b	.L27
.L28:
	.loc 1 170 21 discriminator 3
	ldr	r3, [r7, #4]
	adds	r3, r3, #1
	str	r3, [r7, #4]
.L27:
	.loc 1 170 11 discriminator 1
	ldr	r3, [r7, #4]
	.loc 1 170 2 discriminator 1
	ldr	r2, .L29
	cmp	r3, r2
	bls	.L28
	.loc 1 171 1
	nop
	nop
	adds	r7, r7, #12
	.cfi_def_cfa_offset 4
	mov	sp, r7
	.cfi_def_cfa_register 13
	@ sp needed
	ldr	r7, [sp], #4
	.cfi_restore 7
	.cfi_def_cfa_offset 0
	bx	lr
.L30:
	.align	2
.L29:
	.word	999999
	.cfi_endproc
.LFE7:
	.size	delay, .-delay
.Letext0: