	.cpu cortex-m4
	.arch armv7e-m
	.fpu fpv4-sp-d16
	.eabi_attribute 27, 1
	.eabi_attribute 28, 1
	.eabi_attribute 20, 1
	.eabi_attribute 21, 1
	.eabi_attribute 23, 3
	.eabi_attribute 24, 1
	.eabi_attribute 25, 1
	.eabi_attribute 26, 1
	.eabi_attribute 30, 6
	.eabi_attribute 34, 1
	.eabi_attribute 18, 4
	.file	"main.c"
	.text
.Ltext0:
	.cfi_sections	.debug_frame
	.global	USART1
	.data
	.align	2
	.type	USART1, %object
	.size	USART1, 4
USART1:
	.word	1073811456
	.global	RCC
	.align	2
	.type	RCC, %object
	.size	RCC, 4
RCC:
	.word	1073887232
	.global	GPIOA
	.align	2
	.type	GPIOA, %object
	.size	GPIOA, 4
GPIOA:
	.word	1073872896
	.global	GPIOB
	.align	2
	.type	GPIOB, %object
	.size	GPIOB, 4
GPIOB:
	.word	1073873920
	.global	I2C1
	.align	2
	.type	I2C1, %object
	.size	I2C1, 4
I2C1:
	.word	1073763328
	.global	DMA2
	.align	2
	.type	DMA2, %object
	.size	DMA2, 4
DMA2:
	.word	1073898496
	.global	mystr
	.align	2
	.type	mystr, %object
	.size	mystr, 12
mystr:
	.ascii	"school of\015\012\000"
	.global	str
	.align	2
	.type	str, %object
	.size	str, 8
str:
	.ascii	"linux\015\012\000"
	.text
	.align	1
	.global	main
	.syntax unified
	.thumb
	.thumb_func
	.type	main, %function
main:
.LFB0:
	.file 1 "main.c"
	.loc 1 138 1
	.cfi_startproc
	@ args = 0, pretend = 0, frame = 16
	@ frame_needed = 1, uses_anonymous_args = 0
	push	{r7, lr}
	.cfi_def_cfa_offset 8
	.cfi_offset 7, -8
	.cfi_offset 14, -4
	sub	sp, sp, #16
	.cfi_def_cfa_offset 24
	add	r7, sp, #0
	.cfi_def_cfa_register 7
	.loc 1 140 16
	movs	r3, #0
	strb	r3, [r7, #7]
	.loc 1 142 15
	ldr	r0, .L3
	bl	strlen
	mov	r3, r0
	.loc 1 142 10
	str	r3, [r7, #12]
	.loc 1 143 15
	ldr	r0, .L3+4
	bl	strlen
	mov	r3, r0
	.loc 1 143 10
	str	r3, [r7, #8]
	.loc 1 145 6
	bl	RCC_CONFIG
	.loc 1 146 6
	bl	GPIO_CONFIG
	.loc 1 148 3
	bl	i2c1_init
	.loc 1 150 3
	adds	r2, r7, #7
	movs	r3, #1
	movs	r1, #107
	movs	r0, #208
	bl	i2c1_write
	.loc 1 151 6
	adds	r2, r7, #7
	movs	r3, #1
	movs	r1, #117
	movs	r0, #208
	bl	i2c1_read
.L2:
	.loc 1 153 11 discriminator 1
	b	.L2
.L4:
	.align	2
.L3:
	.word	mystr
	.word	str
	.cfi_endproc
.LFE0:
	.size	main, .-main
	.align	1
	.global	RCC_CONFIG
	.syntax unified
	.thumb
	.thumb_func
	.type	RCC_CONFIG, %function
RCC_CONFIG:
.LFB1:
	.loc 1 158 1
	.cfi_startproc
	@ args = 0, pretend = 0, frame = 0
	@ frame_needed = 1, uses_anonymous_args = 0
	@ link register save eliminated.
	push	{r7}
	.cfi_def_cfa_offset 4
	.cfi_offset 7, -4
	add	r7, sp, #0
	.cfi_def_cfa_register 7
	.loc 1 159 20
	ldr	r3, .L7
	ldr	r3, [r3]
	ldr	r2, [r3, #48]
	ldr	r3, .L7
	ldr	r3, [r3]
	orr	r2, r2, #4
	str	r2, [r3, #48]
	.loc 1 160 20
	ldr	r3, .L7
	ldr	r3, [r3]
	ldr	r2, [r3, #48]
	ldr	r3, .L7
	ldr	r3, [r3]
	orr	r2, r2, #2
	str	r2, [r3, #48]
	.loc 1 161 20
	ldr	r3, .L7
	ldr	r3, [r3]
	ldr	r2, [r3, #48]
	ldr	r3, .L7
	ldr	r3, [r3]
	orr	r2, r2, #1
	str	r2, [r3, #48]
	.loc 1 163 15
	ldr	r3, .L7
	ldr	r3, [r3]
	ldr	r2, [r3]
	ldr	r3, .L7
	ldr	r3, [r3]
	bic	r2, r2, #65536
	str	r2, [r3]
	.loc 1 164 15
	ldr	r3, .L7
	ldr	r3, [r3]
	ldr	r2, [r3]
	ldr	r3, .L7
	ldr	r3, [r3]
	orr	r2, r2, #65536
	str	r2, [r3]
	.loc 1 165 12
	nop
.L6:
	.loc 1 165 17 discriminator 1
	ldr	r3, .L7
	ldr	r3, [r3]
	ldr	r3, [r3]
	.loc 1 165 22 discriminator 1
	and	r3, r3, #131072
	.loc 1 165 12 discriminator 1
	cmp	r3, #0
	beq	.L6
	.loc 1 167 17
	ldr	r3, .L7
	ldr	r3, [r3]
	ldr	r2, [r3, #8]
	ldr	r3, .L7
	ldr	r3, [r3]
	bic	r2, r2, #3
	str	r2, [r3, #8]
	.loc 1 168 17
	ldr	r3, .L7
	ldr	r3, [r3]
	ldr	r2, [r3, #8]
	ldr	r3, .L7
	ldr	r3, [r3]
	orr	r2, r2, #1
	str	r2, [r3, #8]
	.loc 1 169 12
	nop
	.loc 1 171 20
	ldr	r3, .L7
	ldr	r3, [r3]
	ldr	r2, [r3, #68]
	ldr	r3, .L7
	ldr	r3, [r3]
	orr	r2, r2, #131072
	str	r2, [r3, #68]
	.loc 1 173 20
	ldr	r3, .L7
	ldr	r3, [r3]
	ldr	r2, [r3, #64]
	ldr	r3, .L7
	ldr	r3, [r3]
	orr	r2, r2, #131072
	str	r2, [r3, #64]
	.loc 1 175 20
	ldr	r3, .L7
	ldr	r3, [r3]
	ldr	r2, [r3, #68]
	ldr	r3, .L7
	ldr	r3, [r3]
	orr	r2, r2, #16
	str	r2, [r3, #68]
	.loc 1 177 20
	ldr	r3, .L7
	ldr	r3, [r3]
	ldr	r2, [r3, #48]
	ldr	r3, .L7
	ldr	r3, [r3]
	orr	r2, r2, #2097152
	str	r2, [r3, #48]
	.loc 1 179 20
	ldr	r3, .L7
	ldr	r3, [r3]
	ldr	r2, [r3, #48]
	ldr	r3, .L7
	ldr	r3, [r3]
	orr	r2, r2, #4194304
	str	r2, [r3, #48]
	.loc 1 181 20
	ldr	r3, .L7
	ldr	r3, [r3]
	ldr	r2, [r3, #64]
	ldr	r3, .L7
	ldr	r3, [r3]
	orr	r2, r2, #2097152
	str	r2, [r3, #64]
	.loc 1 183 1
	nop
	mov	sp, r7
	.cfi_def_cfa_register 13
	@ sp needed
	ldr	r7, [sp], #4
	.cfi_restore 7
	.cfi_def_cfa_offset 0
	bx	lr
.L8:
	.align	2
.L7:
	.word	RCC
	.cfi_endproc
.LFE1:
	.size	RCC_CONFIG, .-RCC_CONFIG
	.align	1
	.global	GPIO_CONFIG
	.syntax unified
	.thumb
	.thumb_func
	.type	GPIO_CONFIG, %function
GPIO_CONFIG:
.LFB2:
	.loc 1 186 1
	.cfi_startproc
	@ args = 0, pretend = 0, frame = 0
	@ frame_needed = 1, uses_anonymous_args = 0
	@ link register save eliminated.
	push	{r7}
	.cfi_def_cfa_offset 4
	.cfi_offset 7, -4
	add	r7, sp, #0
	.cfi_def_cfa_register 7
	.loc 1 187 21
	ldr	r3, .L10
	ldr	r3, [r3]
	ldr	r2, [r3]
	ldr	r3, .L10
	ldr	r3, [r3]
	bic	r2, r2, #240
	str	r2, [r3]
	.loc 1 188 21
	ldr	r3, .L10
	ldr	r3, [r3]
	ldr	r2, [r3]
	ldr	r3, .L10
	ldr	r3, [r3]
	orr	r2, r2, #160
	str	r2, [r3]
	.loc 1 190 22
	ldr	r3, .L10
	ldr	r3, [r3]
	ldr	r2, [r3, #4]
	ldr	r3, .L10
	ldr	r3, [r3]
	bic	r2, r2, #4
	str	r2, [r3, #4]
	.loc 1 192 21
	ldr	r3, .L10
	ldr	r3, [r3]
	ldr	r2, [r3, #12]
	ldr	r3, .L10
	ldr	r3, [r3]
	bic	r2, r2, #240
	str	r2, [r3, #12]
	.loc 1 194 20
	ldr	r3, .L10
	ldr	r3, [r3]
	ldr	r2, [r3, #32]
	ldr	r3, .L10
	ldr	r3, [r3]
	bic	r2, r2, #3840
	str	r2, [r3, #32]
	.loc 1 195 20
	ldr	r3, .L10
	ldr	r3, [r3]
	ldr	r2, [r3, #32]
	ldr	r3, .L10
	ldr	r3, [r3]
	orr	r2, r2, #1792
	str	r2, [r3, #32]
	.loc 1 197 20
	ldr	r3, .L10
	ldr	r3, [r3]
	ldr	r2, [r3, #32]
	ldr	r3, .L10
	ldr	r3, [r3]
	bic	r2, r2, #61440
	str	r2, [r3, #32]
	.loc 1 198 20
	ldr	r3, .L10
	ldr	r3, [r3]
	ldr	r2, [r3, #32]
	ldr	r3, .L10
	ldr	r3, [r3]
	orr	r2, r2, #28672
	str	r2, [r3, #32]
	.loc 1 201 21
	ldr	r3, .L10+4
	ldr	r3, [r3]
	ldr	r2, [r3]
	ldr	r3, .L10+4
	ldr	r3, [r3]
	bic	r2, r2, #61440
	str	r2, [r3]
	.loc 1 202 21
	ldr	r3, .L10+4
	ldr	r3, [r3]
	ldr	r2, [r3]
	ldr	r3, .L10+4
	ldr	r3, [r3]
	orr	r2, r2, #40960
	str	r2, [r3]
	.loc 1 204 22
	ldr	r3, .L10+4
	ldr	r3, [r3]
	ldr	r2, [r3, #4]
	ldr	r3, .L10+4
	ldr	r3, [r3]
	orr	r2, r2, #192
	str	r2, [r3, #4]
	.loc 1 206 21
	ldr	r3, .L10+4
	ldr	r3, [r3]
	ldr	r2, [r3, #12]
	ldr	r3, .L10+4
	ldr	r3, [r3]
	bic	r2, r2, #61440
	str	r2, [r3, #12]
	.loc 1 208 20
	ldr	r3, .L10+4
	ldr	r3, [r3]
	ldr	r2, [r3, #32]
	ldr	r3, .L10+4
	ldr	r3, [r3]
	bic	r2, r2, #251658240
	str	r2, [r3, #32]
	.loc 1 209 20
	ldr	r3, .L10+4
	ldr	r3, [r3]
	ldr	r2, [r3, #32]
	ldr	r3, .L10+4
	ldr	r3, [r3]
	orr	r2, r2, #67108864
	str	r2, [r3, #32]
	.loc 1 211 20
	ldr	r3, .L10+4
	ldr	r3, [r3]
	ldr	r2, [r3, #32]
	ldr	r3, .L10+4
	ldr	r3, [r3]
	bic	r2, r2, #-268435456
	str	r2, [r3, #32]
	.loc 1 212 20
	ldr	r3, .L10+4
	ldr	r3, [r3]
	ldr	r2, [r3, #32]
	ldr	r3, .L10+4
	ldr	r3, [r3]
	orr	r2, r2, #1073741824
	str	r2, [r3, #32]
	.loc 1 213 1
	nop
	mov	sp, r7
	.cfi_def_cfa_register 13
	@ sp needed
	ldr	r7, [sp], #4
	.cfi_restore 7
	.cfi_def_cfa_offset 0
	bx	lr
.L11:
	.align	2
.L10:
	.word	GPIOA
	.word	GPIOB
	.cfi_endproc
.LFE2:
	.size	GPIO_CONFIG, .-GPIO_CONFIG
	.align	1
	.global	i2c1_init
	.syntax unified
	.thumb
	.thumb_func
	.type	i2c1_init, %function
i2c1_init:
.LFB3:
	.loc 1 216 2
	.cfi_startproc
	@ args = 0, pretend = 0, frame = 0
	@ frame_needed = 1, uses_anonymous_args = 0
	@ link register save eliminated.
	push	{r7}
	.cfi_def_cfa_offset 4
	.cfi_offset 7, -4
	add	r7, sp, #0
	.cfi_def_cfa_register 7
	.loc 1 219 19
	ldr	r3, .L13
	ldr	r3, [r3]
	ldr	r2, [r3]
	ldr	r3, .L13
	ldr	r3, [r3]
	bic	r2, r2, #32768
	str	r2, [r3]
	.loc 1 221 19
	ldr	r3, .L13
	ldr	r3, [r3]
	ldr	r2, [r3]
	ldr	r3, .L13
	ldr	r3, [r3]
	bic	r2, r2, #8192
	str	r2, [r3]
	.loc 1 223 16
	ldr	r3, .L13
	ldr	r3, [r3]
	ldr	r2, [r3]
	ldr	r3, .L13
	ldr	r3, [r3]
	bic	r2, r2, #4096
	str	r2, [r3]
	.loc 1 225 16
	ldr	r3, .L13
	ldr	r3, [r3]
	ldr	r2, [r3]
	ldr	r3, .L13
	ldr	r3, [r3]
	bic	r2, r2, #2048
	str	r2, [r3]
	.loc 1 227 19
	ldr	r3, .L13
	ldr	r3, [r3]
	ldr	r2, [r3]
	ldr	r3, .L13
	ldr	r3, [r3]
	bic	r2, r2, #128
	str	r2, [r3]
	.loc 1 229 19
	ldr	r3, .L13
	ldr	r3, [r3]
	ldr	r2, [r3]
	ldr	r3, .L13
	ldr	r3, [r3]
	bic	r2, r2, #64
	str	r2, [r3]
	.loc 1 231 19
	ldr	r3, .L13
	ldr	r3, [r3]
	ldr	r2, [r3]
	ldr	r3, .L13
	ldr	r3, [r3]
	bic	r2, r2, #32
	str	r2, [r3]
	.loc 1 233 19
	ldr	r3, .L13
	ldr	r3, [r3]
	ldr	r2, [r3]
	ldr	r3, .L13
	ldr	r3, [r3]
	bic	r2, r2, #16
	str	r2, [r3]
	.loc 1 235 19
	ldr	r3, .L13
	ldr	r3, [r3]
	ldr	r2, [r3]
	ldr	r3, .L13
	ldr	r3, [r3]
	bic	r2, r2, #8
	str	r2, [r3]
	.loc 1 237 19
	ldr	r3, .L13
	ldr	r3, [r3]
	ldr	r2, [r3]
	ldr	r3, .L13
	ldr	r3, [r3]
	bic	r2, r2, #2
	str	r2, [r3]
	.loc 1 239 19
	ldr	r3, .L13
	ldr	r3, [r3]
	ldr	r2, [r3, #4]
	ldr	r3, .L13
	ldr	r3, [r3]
	orr	r2, r2, #2048
	str	r2, [r3, #4]
	.loc 1 241 19
	ldr	r3, .L13
	ldr	r3, [r3]
	ldr	r2, [r3, #4]
	ldr	r3, .L13
	ldr	r3, [r3]
	bic	r2, r2, #63
	str	r2, [r3, #4]
	.loc 1 242 19
	ldr	r3, .L13
	ldr	r3, [r3]
	ldr	r2, [r3, #4]
	ldr	r3, .L13
	ldr	r3, [r3]
	orr	r2, r2, #25
	str	r2, [r3, #4]
	.loc 1 244 13
	ldr	r3, .L13
	ldr	r3, [r3]
	.loc 1 244 19
	movs	r2, #125
	str	r2, [r3, #28]
	.loc 1 246 13
	ldr	r3, .L13
	ldr	r3, [r3]
	.loc 1 246 21
	movs	r2, #24
	str	r2, [r3, #32]
	.loc 1 248 19
	ldr	r3, .L13
	ldr	r3, [r3]
	ldr	r2, [r3]
	ldr	r3, .L13
	ldr	r3, [r3]
	orr	r2, r2, #1
	str	r2, [r3]
	.loc 1 249 3
	nop
	mov	sp, r7
	.cfi_def_cfa_register 13
	@ sp needed
	ldr	r7, [sp], #4
	.cfi_restore 7
	.cfi_def_cfa_offset 0
	bx	lr
.L14:
	.align	2
.L13:
	.word	I2C1
	.cfi_endproc
.LFE3:
	.size	i2c1_init, .-i2c1_init
	.align	1
	.global	i2c1_write
	.syntax unified
	.thumb
	.thumb_func
	.type	i2c1_write, %function
i2c1_write:
.LFB4:
	.loc 1 252 1
	.cfi_startproc
	@ args = 0, pretend = 0, frame = 16
	@ frame_needed = 1, uses_anonymous_args = 0
	@ link register save eliminated.
	push	{r7}
	.cfi_def_cfa_offset 4
	.cfi_offset 7, -4
	sub	sp, sp, #20
	.cfi_def_cfa_offset 24
	add	r7, sp, #0
	.cfi_def_cfa_register 7
	str	r2, [r7]
	mov	r2, r3
	mov	r3, r0
	strb	r3, [r7, #7]
	mov	r3, r1
	strb	r3, [r7, #6]
	mov	r3, r2
	strb	r3, [r7, #5]
	.loc 1 255 16
	ldr	r3, .L22
	ldr	r3, [r3]
	ldr	r2, [r3]
	ldr	r3, .L22
	ldr	r3, [r3]
	orr	r2, r2, #256
	str	r2, [r3]
	.loc 1 257 11
	nop
.L16:
	.loc 1 257 18 discriminator 1
	ldr	r3, .L22
	ldr	r3, [r3]
	ldr	r3, [r3, #20]
	.loc 1 257 24 discriminator 1
	and	r3, r3, #1
	.loc 1 257 11 discriminator 1
	cmp	r3, #0
	beq	.L16
	.loc 1 258 16
	ldr	r3, .L22
	ldr	r3, [r3]
	ldr	r3, [r3, #24]
	.loc 1 258 10
	str	r3, [r7, #12]
	.loc 1 260 10
	ldr	r3, .L22
	ldr	r3, [r3]
	.loc 1 260 15
	ldrb	r2, [r7, #7]	@ zero_extendqisi2
	str	r2, [r3, #16]
	.loc 1 262 11
	nop
.L17:
	.loc 1 262 18 discriminator 1
	ldr	r3, .L22
	ldr	r3, [r3]
	ldr	r3, [r3, #20]
	.loc 1 262 24 discriminator 1
	and	r3, r3, #130
	.loc 1 262 11 discriminator 1
	cmp	r3, #0
	beq	.L17
	.loc 1 263 16
	ldr	r3, .L22
	ldr	r3, [r3]
	ldr	r3, [r3, #24]
	.loc 1 263 10
	str	r3, [r7, #12]
	.loc 1 265 10
	ldr	r3, .L22
	ldr	r3, [r3]
	.loc 1 265 15
	ldrb	r2, [r7, #6]	@ zero_extendqisi2
	str	r2, [r3, #16]
	.loc 1 267 11
	nop
.L18:
	.loc 1 267 18 discriminator 1
	ldr	r3, .L22
	ldr	r3, [r3]
	ldr	r3, [r3, #20]
	.loc 1 267 24 discriminator 1
	and	r3, r3, #128
	.loc 1 267 11 discriminator 1
	cmp	r3, #0
	beq	.L18
	.loc 1 268 16
	ldr	r3, .L22
	ldr	r3, [r3]
	ldr	r3, [r3, #24]
	.loc 1 268 10
	str	r3, [r7, #12]
	.loc 1 270 8
	movs	r3, #0
	str	r3, [r7, #8]
	.loc 1 270 3
	b	.L19
.L21:
	.loc 1 273 19
	ldr	r3, [r7, #8]
	ldr	r2, [r7]
	add	r3, r3, r2
	ldrb	r2, [r3]	@ zero_extendqisi2
	.loc 1 273 8
	ldr	r3, .L22
	ldr	r3, [r3]
	.loc 1 273 13
	str	r2, [r3, #16]
	.loc 1 275 18
	nop
.L20:
	.loc 1 275 25 discriminator 1
	ldr	r3, .L22
	ldr	r3, [r3]
	ldr	r3, [r3, #20]
	.loc 1 275 31 discriminator 1
	and	r3, r3, #128
	.loc 1 275 18 discriminator 1
	cmp	r3, #0
	beq	.L20
	.loc 1 276 14 discriminator 2
	ldr	r3, .L22
	ldr	r3, [r3]
	ldr	r3, [r3, #24]
	.loc 1 276 8 discriminator 2
	str	r3, [r7, #12]
	.loc 1 270 24 discriminator 2
	ldr	r3, [r7, #8]
	adds	r3, r3, #1
	str	r3, [r7, #8]
.L19:
	.loc 1 270 13 discriminator 1
	ldrb	r2, [r7, #5]	@ zero_extendqisi2
	ldr	r3, [r7, #8]
	.loc 1 270 3 discriminator 1
	cmp	r2, r3
	bhi	.L21
	.loc 1 279 16
	ldr	r3, .L22
	ldr	r3, [r3]
	ldr	r2, [r3]
	ldr	r3, .L22
	ldr	r3, [r3]
	orr	r2, r2, #512
	str	r2, [r3]
	.loc 1 281 1
	nop
	adds	r7, r7, #20
	.cfi_def_cfa_offset 4
	mov	sp, r7
	.cfi_def_cfa_register 13
	@ sp needed
	ldr	r7, [sp], #4
	.cfi_restore 7
	.cfi_def_cfa_offset 0
	bx	lr
.L23:
	.align	2
.L22:
	.word	I2C1
	.cfi_endproc
.LFE4:
	.size	i2c1_write, .-i2c1_write
	.align	1
	.global	i2c1_read
	.syntax unified
	.thumb
	.thumb_func
	.type	i2c1_read, %function
i2c1_read:
.LFB5:
	.loc 1 284 1
	.cfi_startproc
	@ args = 0, pretend = 0, frame = 16
	@ frame_needed = 1, uses_anonymous_args = 0
	@ link register save eliminated.
	push	{r7}
	.cfi_def_cfa_offset 4
	.cfi_offset 7, -4
	sub	sp, sp, #20
	.cfi_def_cfa_offset 24
	add	r7, sp, #0
	.cfi_def_cfa_register 7
	str	r2, [r7]
	mov	r2, r3
	mov	r3, r0
	strb	r3, [r7, #7]
	mov	r3, r1
	strb	r3, [r7, #6]
	mov	r3, r2
	strb	r3, [r7, #5]
	.loc 1 287 17
	ldr	r3, .L36
	ldr	r3, [r3]
	ldr	r2, [r3]
	ldr	r3, .L36
	ldr	r3, [r3]
	orr	r2, r2, #256
	str	r2, [r3]
	.loc 1 289 12
	nop
.L25:
	.loc 1 289 19 discriminator 1
	ldr	r3, .L36
	ldr	r3, [r3]
	ldr	r3, [r3, #20]
	.loc 1 289 25 discriminator 1
	and	r3, r3, #1
	.loc 1 289 12 discriminator 1
	cmp	r3, #0
	beq	.L25
	.loc 1 290 17
	ldr	r3, .L36
	ldr	r3, [r3]
	ldr	r3, [r3, #24]
	.loc 1 290 11
	str	r3, [r7, #12]
	.loc 1 292 10
	ldr	r3, .L36
	ldr	r3, [r3]
	.loc 1 292 15
	ldrb	r2, [r7, #7]	@ zero_extendqisi2
	str	r2, [r3, #16]
	.loc 1 294 12
	nop
.L26:
	.loc 1 294 19 discriminator 1
	ldr	r3, .L36
	ldr	r3, [r3]
	ldr	r3, [r3, #20]
	.loc 1 294 25 discriminator 1
	and	r3, r3, #130
	.loc 1 294 12 discriminator 1
	cmp	r3, #0
	beq	.L26
	.loc 1 295 19
	ldr	r3, .L36
	ldr	r3, [r3]
	ldr	r3, [r3, #24]
	.loc 1 295 13
	str	r3, [r7, #12]
	.loc 1 297 13
	ldr	r3, .L36
	ldr	r3, [r3]
	.loc 1 297 18
	ldrb	r2, [r7, #6]	@ zero_extendqisi2
	str	r2, [r3, #16]
	.loc 1 299 14
	nop
.L27:
	.loc 1 299 21 discriminator 1
	ldr	r3, .L36
	ldr	r3, [r3]
	ldr	r3, [r3, #20]
	.loc 1 299 27 discriminator 1
	and	r3, r3, #128
	.loc 1 299 14 discriminator 1
	cmp	r3, #0
	beq	.L27
	.loc 1 300 19
	ldr	r3, .L36
	ldr	r3, [r3]
	ldr	r3, [r3, #24]
	.loc 1 300 13
	str	r3, [r7, #12]
	.loc 1 302 19
	ldr	r3, .L36
	ldr	r3, [r3]
	ldr	r2, [r3]
	ldr	r3, .L36
	ldr	r3, [r3]
	orr	r2, r2, #256
	str	r2, [r3]
	.loc 1 304 14
	nop
.L28:
	.loc 1 304 21 discriminator 1
	ldr	r3, .L36
	ldr	r3, [r3]
	ldr	r3, [r3, #20]
	.loc 1 304 27 discriminator 1
	and	r3, r3, #1
	.loc 1 304 14 discriminator 1
	cmp	r3, #0
	beq	.L28
	.loc 1 305 19
	ldr	r3, .L36
	ldr	r3, [r3]
	ldr	r3, [r3, #24]
	.loc 1 305 13
	str	r3, [r7, #12]
	.loc 1 308 29
	ldrb	r3, [r7, #7]
	orr	r3, r3, #1
	uxtb	r2, r3
	.loc 1 308 13
	ldr	r3, .L36
	ldr	r3, [r3]
	.loc 1 308 18
	str	r2, [r3, #16]
	.loc 1 310 11
	nop
.L29:
	.loc 1 310 18 discriminator 1
	ldr	r3, .L36
	ldr	r3, [r3]
	ldr	r3, [r3, #20]
	.loc 1 310 24 discriminator 1
	and	r3, r3, #130
	.loc 1 310 11 discriminator 1
	cmp	r3, #0
	beq	.L29
	.loc 1 311 19
	ldr	r3, .L36
	ldr	r3, [r3]
	ldr	r3, [r3, #24]
	.loc 1 311 13
	str	r3, [r7, #12]
	.loc 1 313 10
	movs	r3, #0
	str	r3, [r7, #8]
	.loc 1 313 5
	b	.L30
.L34:
	.loc 1 315 25
	ldrb	r3, [r7, #5]	@ zero_extendqisi2
	subs	r3, r3, #1
	mov	r2, r3
	.loc 1 315 16
	ldr	r3, [r7, #8]
	.loc 1 315 14
	cmp	r2, r3
	bne	.L31
	.loc 1 317 19
	ldr	r3, .L36
	ldr	r3, [r3]
	ldr	r2, [r3]
	ldr	r3, .L36
	ldr	r3, [r3]
	bic	r2, r2, #1024
	str	r2, [r3]
	b	.L35
.L31:
	.loc 1 319 30
	ldr	r3, .L36
	ldr	r3, [r3]
	ldr	r2, [r3]
	ldr	r3, .L36
	ldr	r3, [r3]
	orr	r2, r2, #1024
	str	r2, [r3]
.L35:
	.loc 1 321 17
	nop
.L33:
	.loc 1 321 24 discriminator 1
	ldr	r3, .L36
	ldr	r3, [r3]
	ldr	r3, [r3, #20]
	.loc 1 321 30 discriminator 1
	and	r3, r3, #64
	.loc 1 321 17 discriminator 1
	cmp	r3, #0
	beq	.L33
	.loc 1 322 16 discriminator 2
	ldr	r3, .L36
	ldr	r3, [r3]
	ldr	r3, [r3, #24]
	.loc 1 322 10 discriminator 2
	str	r3, [r7, #12]
	.loc 1 324 27 discriminator 2
	ldr	r3, .L36
	ldr	r3, [r3]
	ldr	r1, [r3, #16]
	.loc 1 324 17 discriminator 2
	ldr	r3, [r7, #8]
	ldr	r2, [r7]
	add	r3, r3, r2
	.loc 1 324 21 discriminator 2
	uxtb	r2, r1
	strb	r2, [r3]
	.loc 1 313 26 discriminator 2
	ldr	r3, [r7, #8]
	adds	r3, r3, #1
	str	r3, [r7, #8]
.L30:
	.loc 1 313 15 discriminator 1
	ldrb	r2, [r7, #5]	@ zero_extendqisi2
	ldr	r3, [r7, #8]
	.loc 1 313 5 discriminator 1
	cmp	r2, r3
	bhi	.L34
	.loc 1 328 16
	ldr	r3, .L36
	ldr	r3, [r3]
	ldr	r2, [r3]
	ldr	r3, .L36
	ldr	r3, [r3]
	orr	r2, r2, #512
	str	r2, [r3]
	.loc 1 329 1
	nop
	adds	r7, r7, #20
	.cfi_def_cfa_offset 4
	mov	sp, r7
	.cfi_def_cfa_register 13
	@ sp needed
	ldr	r7, [sp], #4
	.cfi_restore 7
	.cfi_def_cfa_offset 0
	bx	lr
.L37:
	.align	2
.L36:
	.word	I2C1
	.cfi_endproc
.LFE5:
	.size	i2c1_read, .-i2c1_read
.Letext0: