	.cpu cortex-m4
	.arch armv7e-m
	.fpu fpv4-sp-d16
	.eabi_attribute 27, 1
	.eabi_attribute 28, 1
	.eabi_attribute 20, 1
	.eabi_attribute 21, 1
	.eabi_attribute 23, 3
	.eabi_attribute 24, 1
	.eabi_attribute 25, 1
	.eabi_attribute 26, 1
	.eabi_attribute 30, 6
	.eabi_attribute 34, 1
	.eabi_attribute 18, 4
	.file	"main.c"
	.text
.Ltext0:
	.cfi_sections	.debug_frame
	.global	NVIC_ISER
	.data
	.align	2
	.type	NVIC_ISER, %object
	.size	NVIC_ISER, 4
NVIC_ISER:
	.word	-536813312
	.global	NVIC_ICER
	.align	2
	.type	NVIC_ICER, %object
	.size	NVIC_ICER, 4
NVIC_ICER:
	.word	-536813184
	.global	NVIC_ISPR
	.align	2
	.type	NVIC_ISPR, %object
	.size	NVIC_ISPR, 4
NVIC_ISPR:
	.word	-536813056
	.global	NVIC_ICPR
	.align	2
	.type	NVIC_ICPR, %object
	.size	NVIC_ICPR, 4
NVIC_ICPR:
	.word	-536812928
	.global	NVIC_IABR
	.align	2
	.type	NVIC_IABR, %object
	.size	NVIC_IABR, 4
NVIC_IABR:
	.word	-536812800
	.global	NVIC_IPR
	.align	2
	.type	NVIC_IPR, %object
	.size	NVIC_IPR, 4
NVIC_IPR:
	.word	-536812544
	.global	USART1
	.align	2
	.type	USART1, %object
	.size	USART1, 4
USART1:
	.word	1073811456
	.global	RCC
	.align	2
	.type	RCC, %object
	.size	RCC, 4
RCC:
	.word	1073887232
	.global	GPIOA
	.align	2
	.type	GPIOA, %object
	.size	GPIOA, 4
GPIOA:
	.word	1073872896
	.global	GPIOB
	.align	2
	.type	GPIOB, %object
	.size	GPIOB, 4
GPIOB:
	.word	1073873920
	.global	DMA2
	.align	2
	.type	DMA2, %object
	.size	DMA2, 4
DMA2:
	.word	1073898496
	.global	mystr
	.align	2
	.type	mystr, %object
	.size	mystr, 12
mystr:
	.ascii	"school of\015\012\000"
	.global	str
	.align	2
	.type	str, %object
	.size	str, 8
str:
	.ascii	"linux\015\012\000"
	.text
	.align	1
	.global	main
	.syntax unified
	.thumb
	.thumb_func
	.type	main, %function
main:
.LFB0:
	.file 1 "main.c"
	.loc 1 123 1
	.cfi_startproc
	@ args = 0, pretend = 0, frame = 8
	@ frame_needed = 1, uses_anonymous_args = 0
	push	{r7, lr}
	.cfi_def_cfa_offset 8
	.cfi_offset 7, -8
	.cfi_offset 14, -4
	sub	sp, sp, #8
	.cfi_def_cfa_offset 16
	add	r7, sp, #0
	.cfi_def_cfa_register 7
	.loc 1 125 15
	ldr	r0, .L3
	bl	strlen
	mov	r3, r0
	.loc 1 125 10
	str	r3, [r7, #4]
	.loc 1 126 15
	ldr	r0, .L3+4
	bl	strlen
	mov	r3, r0
	.loc 1 126 10
	str	r3, [r7]
	.loc 1 128 6
	bl	RCC_CONFIG
	.loc 1 129 6
	bl	GPIO_CONFIG
	.loc 1 130 6
	bl	USART1_INIT
	.loc 1 132 6
	bl	DMA_INIT
	.loc 1 133 6
	ldr	r3, .L3
	ldr	r1, [r7, #4]
	mov	r0, r3
	bl	DMA2_SEND
	.loc 1 134 6
	ldr	r3, .L3+4
	ldr	r1, [r7]
	mov	r0, r3
	bl	DMA2_SEND
.L2:
	.loc 1 135 11 discriminator 1
	b	.L2
.L4:
	.align	2
.L3:
	.word	mystr
	.word	str
	.cfi_endproc
.LFE0:
	.size	main, .-main
	.align	1
	.global	RCC_CONFIG
	.syntax unified
	.thumb
	.thumb_func
	.type	RCC_CONFIG, %function
RCC_CONFIG:
.LFB1:
	.loc 1 140 1
	.cfi_startproc
	@ args = 0, pretend = 0, frame = 0
	@ frame_needed = 1, uses_anonymous_args = 0
	@ link register save eliminated.
	push	{r7}
	.cfi_def_cfa_offset 4
	.cfi_offset 7, -4
	add	r7, sp, #0
	.cfi_def_cfa_register 7
	.loc 1 141 20
	ldr	r3, .L7
	ldr	r3, [r3]
	ldr	r2, [r3, #48]
	ldr	r3, .L7
	ldr	r3, [r3]
	orr	r2, r2, #4
	str	r2, [r3, #48]
	.loc 1 142 20
	ldr	r3, .L7
	ldr	r3, [r3]
	ldr	r2, [r3, #48]
	ldr	r3, .L7
	ldr	r3, [r3]
	orr	r2, r2, #2
	str	r2, [r3, #48]
	.loc 1 143 20
	ldr	r3, .L7
	ldr	r3, [r3]
	ldr	r2, [r3, #48]
	ldr	r3, .L7
	ldr	r3, [r3]
	orr	r2, r2, #1
	str	r2, [r3, #48]
	.loc 1 145 15
	ldr	r3, .L7
	ldr	r3, [r3]
	ldr	r2, [r3]
	ldr	r3, .L7
	ldr	r3, [r3]
	bic	r2, r2, #65536
	str	r2, [r3]
	.loc 1 146 15
	ldr	r3, .L7
	ldr	r3, [r3]
	ldr	r2, [r3]
	ldr	r3, .L7
	ldr	r3, [r3]
	orr	r2, r2, #65536
	str	r2, [r3]
	.loc 1 147 12
	nop
.L6:
	.loc 1 147 17 discriminator 1
	ldr	r3, .L7
	ldr	r3, [r3]
	ldr	r3, [r3]
	.loc 1 147 22 discriminator 1
	and	r3, r3, #131072
	.loc 1 147 12 discriminator 1
	cmp	r3, #0
	beq	.L6
	.loc 1 149 17
	ldr	r3, .L7
	ldr	r3, [r3]
	ldr	r2, [r3, #8]
	ldr	r3, .L7
	ldr	r3, [r3]
	bic	r2, r2, #3
	str	r2, [r3, #8]
	.loc 1 150 17
	ldr	r3, .L7
	ldr	r3, [r3]
	ldr	r2, [r3, #8]
	ldr	r3, .L7
	ldr	r3, [r3]
	orr	r2, r2, #1
	str	r2, [r3, #8]
	.loc 1 151 12
	nop
	.loc 1 153 20
	ldr	r3, .L7
	ldr	r3, [r3]
	ldr	r2, [r3, #68]
	ldr	r3, .L7
	ldr	r3, [r3]
	orr	r2, r2, #131072
	str	r2, [r3, #68]
	.loc 1 155 20
	ldr	r3, .L7
	ldr	r3, [r3]
	ldr	r2, [r3, #64]
	ldr	r3, .L7
	ldr	r3, [r3]
	orr	r2, r2, #131072
	str	r2, [r3, #64]
	.loc 1 157 20
	ldr	r3, .L7
	ldr	r3, [r3]
	ldr	r2, [r3, #68]
	ldr	r3, .L7
	ldr	r3, [r3]
	orr	r2, r2, #16
	str	r2, [r3, #68]
	.loc 1 159 20
	ldr	r3, .L7
	ldr	r3, [r3]
	ldr	r2, [r3, #48]
	ldr	r3, .L7
	ldr	r3, [r3]
	orr	r2, r2, #2097152
	str	r2, [r3, #48]
	.loc 1 161 20
	ldr	r3, .L7
	ldr	r3, [r3]
	ldr	r2, [r3, #48]
	ldr	r3, .L7
	ldr	r3, [r3]
	orr	r2, r2, #4194304
	str	r2, [r3, #48]
	.loc 1 162 1
	nop
	mov	sp, r7
	.cfi_def_cfa_register 13
	@ sp needed
	ldr	r7, [sp], #4
	.cfi_restore 7
	.cfi_def_cfa_offset 0
	bx	lr
.L8:
	.align	2
.L7:
	.word	RCC
	.cfi_endproc
.LFE1:
	.size	RCC_CONFIG, .-RCC_CONFIG
	.align	1
	.global	GPIO_CONFIG
	.syntax unified
	.thumb
	.thumb_func
	.type	GPIO_CONFIG, %function
GPIO_CONFIG:
.LFB2:
	.loc 1 164 1
	.cfi_startproc
	@ args = 0, pretend = 0, frame = 0
	@ frame_needed = 1, uses_anonymous_args = 0
	@ link register save eliminated.
	push	{r7}
	.cfi_def_cfa_offset 4
	.cfi_offset 7, -4
	add	r7, sp, #0
	.cfi_def_cfa_register 7
	.loc 1 165 21
	ldr	r3, .L10
	ldr	r3, [r3]
	ldr	r2, [r3]
	ldr	r3, .L10
	ldr	r3, [r3]
	bic	r2, r2, #240
	str	r2, [r3]
	.loc 1 166 21
	ldr	r3, .L10
	ldr	r3, [r3]
	ldr	r2, [r3]
	ldr	r3, .L10
	ldr	r3, [r3]
	orr	r2, r2, #160
	str	r2, [r3]
	.loc 1 168 22
	ldr	r3, .L10
	ldr	r3, [r3]
	ldr	r2, [r3, #4]
	ldr	r3, .L10
	ldr	r3, [r3]
	bic	r2, r2, #4
	str	r2, [r3, #4]
	.loc 1 170 21
	ldr	r3, .L10
	ldr	r3, [r3]
	ldr	r2, [r3, #12]
	ldr	r3, .L10
	ldr	r3, [r3]
	bic	r2, r2, #240
	str	r2, [r3, #12]
	.loc 1 172 20
	ldr	r3, .L10
	ldr	r3, [r3]
	ldr	r2, [r3, #32]
	ldr	r3, .L10
	ldr	r3, [r3]
	bic	r2, r2, #3840
	str	r2, [r3, #32]
	.loc 1 173 20
	ldr	r3, .L10
	ldr	r3, [r3]
	ldr	r2, [r3, #32]
	ldr	r3, .L10
	ldr	r3, [r3]
	orr	r2, r2, #1792
	str	r2, [r3, #32]
	.loc 1 175 20
	ldr	r3, .L10
	ldr	r3, [r3]
	ldr	r2, [r3, #32]
	ldr	r3, .L10
	ldr	r3, [r3]
	bic	r2, r2, #61440
	str	r2, [r3, #32]
	.loc 1 176 20
	ldr	r3, .L10
	ldr	r3, [r3]
	ldr	r2, [r3, #32]
	ldr	r3, .L10
	ldr	r3, [r3]
	orr	r2, r2, #28672
	str	r2, [r3, #32]
	.loc 1 178 21
	ldr	r3, .L10+4
	ldr	r3, [r3]
	ldr	r2, [r3]
	ldr	r3, .L10+4
	ldr	r3, [r3]
	bic	r2, r2, #61440
	str	r2, [r3]
	.loc 1 179 21
	ldr	r3, .L10+4
	ldr	r3, [r3]
	ldr	r2, [r3]
	ldr	r3, .L10+4
	ldr	r3, [r3]
	orr	r2, r2, #40960
	str	r2, [r3]
	.loc 1 181 20
	ldr	r3, .L10+4
	ldr	r3, [r3]
	ldr	r2, [r3, #32]
	ldr	r3, .L10+4
	ldr	r3, [r3]
	bic	r2, r2, #251658240
	str	r2, [r3, #32]
	.loc 1 182 20
	ldr	r3, .L10+4
	ldr	r3, [r3]
	ldr	r2, [r3, #32]
	ldr	r3, .L10+4
	ldr	r3, [r3]
	orr	r2, r2, #117440512
	str	r2, [r3, #32]
	.loc 1 184 20
	ldr	r3, .L10+4
	ldr	r3, [r3]
	ldr	r2, [r3, #32]
	ldr	r3, .L10+4
	ldr	r3, [r3]
	bic	r2, r2, #-268435456
	str	r2, [r3, #32]
	.loc 1 185 20
	ldr	r3, .L10+4
	ldr	r3, [r3]
	ldr	r2, [r3, #32]
	ldr	r3, .L10+4
	ldr	r3, [r3]
	orr	r2, r2, #1879048192
	str	r2, [r3, #32]
	.loc 1 186 1
	nop
	mov	sp, r7
	.cfi_def_cfa_register 13
	@ sp needed
	ldr	r7, [sp], #4
	.cfi_restore 7
	.cfi_def_cfa_offset 0
	bx	lr
.L11:
	.align	2
.L10:
	.word	GPIOA
	.word	GPIOB
	.cfi_endproc
.LFE2:
	.size	GPIO_CONFIG, .-GPIO_CONFIG
	.align	1
	.global	USART1_INIT
	.syntax unified
	.thumb
	.thumb_func
	.type	USART1_INIT, %function
USART1_INIT:
.LFB3:
	.loc 1 188 1
	.cfi_startproc
	@ args = 0, pretend = 0, frame = 0
	@ frame_needed = 1, uses_anonymous_args = 0
	@ link register save eliminated.
	push	{r7}
	.cfi_def_cfa_offset 4
	.cfi_offset 7, -4
	add	r7, sp, #0
	.cfi_def_cfa_register 7
	.loc 1 190 15
	ldr	r3, .L13
	ldr	r3, [r3]
	ldr	r2, [r3, #12]
	ldr	r3, .L13
	ldr	r3, [r3]
	orr	r2, r2, #8192
	str	r2, [r3, #12]
	.loc 1 192 22
	ldr	r3, .L13
	ldr	r3, [r3]
	ldr	r3, [r3, #8]
	ldr	r2, .L13
	ldr	r2, [r2]
	bic	r3, r3, #65280
	bic	r3, r3, #240
	str	r3, [r2, #8]
	.loc 1 194 15
	ldr	r3, .L13
	ldr	r3, [r3]
	ldr	r3, [r3, #8]
	ldr	r2, .L13
	ldr	r2, [r2]
	orr	r3, r3, #5184
	orr	r3, r3, #16
	str	r3, [r2, #8]
	.loc 1 196 15
	ldr	r3, .L13
	ldr	r3, [r3]
	ldr	r2, [r3, #8]
	ldr	r3, .L13
	ldr	r3, [r3]
	bic	r2, r2, #15
	str	r2, [r3, #8]
	.loc 1 198 15
	ldr	r3, .L13
	ldr	r3, [r3]
	ldr	r2, [r3, #8]
	ldr	r3, .L13
	ldr	r3, [r3]
	orr	r2, r2, #4
	str	r2, [r3, #8]
	.loc 1 200 22
	ldr	r3, .L13
	ldr	r3, [r3]
	ldr	r2, [r3, #12]
	ldr	r3, .L13
	ldr	r3, [r3]
	orr	r2, r2, #32768
	str	r2, [r3, #12]
	.loc 1 202 22
	ldr	r3, .L13
	ldr	r3, [r3]
	ldr	r2, [r3, #12]
	ldr	r3, .L13
	ldr	r3, [r3]
	bic	r2, r2, #4096
	str	r2, [r3, #12]
	.loc 1 204 22
	ldr	r3, .L13
	ldr	r3, [r3]
	ldr	r2, [r3, #12]
	ldr	r3, .L13
	ldr	r3, [r3]
	orr	r2, r2, #8
	str	r2, [r3, #12]
	.loc 1 206 22
	ldr	r3, .L13
	ldr	r3, [r3]
	ldr	r2, [r3, #20]
	ldr	r3, .L13
	ldr	r3, [r3]
	orr	r2, r2, #128
	str	r2, [r3, #20]
	.loc 1 208 22
	ldr	r3, .L13
	ldr	r3, [r3]
	ldr	r2, [r3, #20]
	ldr	r3, .L13
	ldr	r3, [r3]
	bic	r2, r2, #8
	str	r2, [r3, #20]
	.loc 1 210 21
	ldr	r3, .L13
	ldr	r3, [r3]
	ldr	r2, [r3]
	ldr	r3, .L13
	ldr	r3, [r3]
	bic	r2, r2, #64
	str	r2, [r3]
	.loc 1 211 1
	nop
	mov	sp, r7
	.cfi_def_cfa_register 13
	@ sp needed
	ldr	r7, [sp], #4
	.cfi_restore 7
	.cfi_def_cfa_offset 0
	bx	lr
.L14:
	.align	2
.L13:
	.word	USART1
	.cfi_endproc
.LFE3:
	.size	USART1_INIT, .-USART1_INIT
	.align	1
	.global	DMA_INIT
	.syntax unified
	.thumb
	.thumb_func
	.type	DMA_INIT, %function
DMA_INIT:
.LFB4:
	.loc 1 213 1
	.cfi_startproc
	@ args = 0, pretend = 0, frame = 0
	@ frame_needed = 1, uses_anonymous_args = 0
	@ link register save eliminated.
	push	{r7}
	.cfi_def_cfa_offset 4
	.cfi_offset 7, -4
	add	r7, sp, #0
	.cfi_def_cfa_register 7
	.loc 1 214 24
	ldr	r3, .L17
	ldr	r3, [r3]
	ldr	r2, [r3, #184]
	ldr	r3, .L17
	ldr	r3, [r3]
	bic	r2, r2, #1
	str	r2, [r3, #184]
	.loc 1 216 15
	nop
.L16:
	.loc 1 216 21 discriminator 1
	ldr	r3, .L17
	ldr	r3, [r3]
	.loc 1 216 27 discriminator 1
	ldr	r3, [r3, #184]
	.loc 1 216 31 discriminator 1
	and	r3, r3, #1
	.loc 1 216 15 discriminator 1
	cmp	r3, #0
	bne	.L16
	.loc 1 218 24
	ldr	r3, .L17
	ldr	r3, [r3]
	ldr	r2, [r3, #184]
	ldr	r3, .L17
	ldr	r3, [r3]
	bic	r2, r2, #234881024
	str	r2, [r3, #184]
	.loc 1 220 24
	ldr	r3, .L17
	ldr	r3, [r3]
	ldr	r2, [r3, #184]
	ldr	r3, .L17
	ldr	r3, [r3]
	orr	r2, r2, #134217728
	str	r2, [r3, #184]
	.loc 1 222 24
	ldr	r3, .L17
	ldr	r3, [r3]
	ldr	r2, [r3, #184]
	ldr	r3, .L17
	ldr	r3, [r3]
	bic	r2, r2, #32
	str	r2, [r3, #184]
	.loc 1 224 24
	ldr	r3, .L17
	ldr	r3, [r3]
	ldr	r2, [r3, #184]
	ldr	r3, .L17
	ldr	r3, [r3]
	bic	r2, r2, #196608
	str	r2, [r3, #184]
	.loc 1 226 25
	ldr	r3, .L17
	ldr	r3, [r3]
	ldr	r2, [r3, #204]
	ldr	r3, .L17
	ldr	r3, [r3]
	bic	r2, r2, #4
	str	r2, [r3, #204]
	.loc 1 228 24
	ldr	r3, .L17
	ldr	r3, [r3]
	ldr	r2, [r3, #184]
	ldr	r3, .L17
	ldr	r3, [r3]
	bic	r2, r2, #25165824
	str	r2, [r3, #184]
	.loc 1 230 24
	ldr	r3, .L17
	ldr	r3, [r3]
	ldr	r2, [r3, #184]
	ldr	r3, .L17
	ldr	r3, [r3]
	bic	r2, r2, #6291456
	str	r2, [r3, #184]
	.loc 1 232 24
	ldr	r3, .L17
	ldr	r3, [r3]
	ldr	r2, [r3, #184]
	ldr	r3, .L17
	ldr	r3, [r3]
	bic	r2, r2, #524288
	str	r2, [r3, #184]
	.loc 1 234 24
	ldr	r3, .L17
	ldr	r3, [r3]
	ldr	r2, [r3, #184]
	ldr	r3, .L17
	ldr	r3, [r3]
	bic	r2, r2, #262144
	str	r2, [r3, #184]
	.loc 1 236 24
	ldr	r3, .L17
	ldr	r3, [r3]
	ldr	r2, [r3, #184]
	ldr	r3, .L17
	ldr	r3, [r3]
	bic	r2, r2, #32768
	str	r2, [r3, #184]
	.loc 1 238 24
	ldr	r3, .L17
	ldr	r3, [r3]
	ldr	r2, [r3, #184]
	ldr	r3, .L17
	ldr	r3, [r3]
	bic	r2, r2, #24576
	str	r2, [r3, #184]
	.loc 1 240 24
	ldr	r3, .L17
	ldr	r3, [r3]
	ldr	r2, [r3, #184]
	ldr	r3, .L17
	ldr	r3, [r3]
	bic	r2, r2, #6144
	str	r2, [r3, #184]
	.loc 1 242 24
	ldr	r3, .L17
	ldr	r3, [r3]
	ldr	r2, [r3, #184]
	ldr	r3, .L17
	ldr	r3, [r3]
	orr	r2, r2, #1024
	str	r2, [r3, #184]
	.loc 1 244 24
	ldr	r3, .L17
	ldr	r3, [r3]
	ldr	r2, [r3, #184]
	ldr	r3, .L17
	ldr	r3, [r3]
	bic	r2, r2, #512
	str	r2, [r3, #184]
	.loc 1 246 48
	ldr	r3, .L17+4
	ldr	r3, [r3]
	.loc 1 246 41
	adds	r2, r3, #4
	.loc 1 246 14
	ldr	r3, .L17
	ldr	r3, [r3]
	.loc 1 246 25
	str	r2, [r3, #192]
	.loc 1 248 17
	ldr	r3, .L17
	ldr	r3, [r3]
	ldr	r2, [r3, #184]
	ldr	r3, .L17
	ldr	r3, [r3]
	bic	r2, r2, #256
	str	r2, [r3, #184]
	.loc 1 250 24
	ldr	r3, .L17
	ldr	r3, [r3]
	ldr	r2, [r3, #184]
	ldr	r3, .L17
	ldr	r3, [r3]
	bic	r2, r2, #192
	str	r2, [r3, #184]
	.loc 1 252 24
	ldr	r3, .L17
	ldr	r3, [r3]
	ldr	r2, [r3, #184]
	ldr	r3, .L17
	ldr	r3, [r3]
	orr	r2, r2, #64
	str	r2, [r3, #184]
	.loc 1 254 1
	nop
	mov	sp, r7
	.cfi_def_cfa_register 13
	@ sp needed
	ldr	r7, [sp], #4
	.cfi_restore 7
	.cfi_def_cfa_offset 0
	bx	lr
.L18:
	.align	2
.L17:
	.word	DMA2
	.word	USART1
	.cfi_endproc
.LFE4:
	.size	DMA_INIT, .-DMA_INIT
	.align	1
	.global	DMA2_SEND
	.syntax unified
	.thumb
	.thumb_func
	.type	DMA2_SEND, %function
DMA2_SEND:
.LFB5:
	.loc 1 256 1
	.cfi_startproc
	@ args = 0, pretend = 0, frame = 8
	@ frame_needed = 1, uses_anonymous_args = 0
	@ link register save eliminated.
	push	{r7}
	.cfi_def_cfa_offset 4
	.cfi_offset 7, -4
	sub	sp, sp, #12
	.cfi_def_cfa_offset 16
	add	r7, sp, #0
	.cfi_def_cfa_register 7
	str	r0, [r7, #4]
	str	r1, [r7]
	.loc 1 257 20
	ldr	r3, .L22
	ldr	r3, [r3]
	ldr	r2, [r3]
	ldr	r3, .L22
	ldr	r3, [r3]
	bic	r2, r2, #64
	str	r2, [r3]
	.loc 1 259 16
	ldr	r3, .L22+4
	ldr	r3, [r3]
	ldr	r2, [r3, #184]
	ldr	r3, .L22+4
	ldr	r3, [r3]
	bic	r2, r2, #1
	str	r2, [r3, #184]
	.loc 1 261 7
	nop
.L20:
	.loc 1 261 14 discriminator 1
	ldr	r3, .L22+4
	ldr	r3, [r3]
	.loc 1 261 20 discriminator 1
	ldr	r3, [r3, #184]
	.loc 1 261 24 discriminator 1
	and	r3, r3, #1
	.loc 1 261 7 discriminator 1
	cmp	r3, #0
	bne	.L20
	.loc 1 263 6
	ldr	r3, .L22+4
	ldr	r3, [r3]
	.loc 1 263 18
	ldr	r2, [r7, #4]
	str	r2, [r3, #196]
	.loc 1 265 6
	ldr	r3, .L22+4
	ldr	r3, [r3]
	.loc 1 265 18
	ldr	r2, [r7]
	str	r2, [r3, #188]
	.loc 1 267 16
	ldr	r3, .L22+4
	ldr	r3, [r3]
	ldr	r2, [r3, #184]
	ldr	r3, .L22+4
	ldr	r3, [r3]
	orr	r2, r2, #1
	str	r2, [r3, #184]
	.loc 1 269 14
	nop
.L21:
	.loc 1 269 21 discriminator 1
	ldr	r3, .L22+4
	ldr	r3, [r3]
	ldr	r3, [r3, #4]
	.loc 1 269 28 discriminator 1
	and	r3, r3, #134217728
	.loc 1 269 14 discriminator 1
	cmp	r3, #0
	beq	.L21
	.loc 1 271 12
	ldr	r3, .L22+4
	ldr	r3, [r3]
	.loc 1 271 20
	mov	r2, #201326592
	str	r2, [r3, #12]
	.loc 1 272 1
	nop
	adds	r7, r7, #12
	.cfi_def_cfa_offset 4
	mov	sp, r7
	.cfi_def_cfa_register 13
	@ sp needed
	ldr	r7, [sp], #4
	.cfi_restore 7
	.cfi_def_cfa_offset 0
	bx	lr
.L23:
	.align	2
.L22:
	.word	USART1
	.word	DMA2
	.cfi_endproc
.LFE5:
	.size	DMA2_SEND, .-DMA2_SEND
.Letext0: