	.cpu cortex-m4
	.arch armv7e-m
	.fpu fpv4-sp-d16
	.eabi_attribute 27, 1
	.eabi_attribute 28, 1
	.eabi_attribute 20, 1
	.eabi_attribute 21, 1
	.eabi_attribute 23, 3
	.eabi_attribute 24, 1
	.eabi_attribute 25, 1
	.eabi_attribute 26, 1
	.eabi_attribute 30, 6
	.eabi_attribute 34, 1
	.eabi_attribute 18, 4
	.file	"main.c"
	.text
.Ltext0:
	.cfi_sections	.debug_frame
	.global	RCC_CR
	.data
	.align	2
	.type	RCC_CR, %object
	.size	RCC_CR, 4
RCC_CR:
	.word	1073887232
	.global	RCC_PLLCFGR
	.align	2
	.type	RCC_PLLCFGR, %object
	.size	RCC_PLLCFGR, 4
RCC_PLLCFGR:
	.word	1073887236
	.global	RCC_CFGR
	.align	2
	.type	RCC_CFGR, %object
	.size	RCC_CFGR, 4
RCC_CFGR:
	.word	1073887240
	.global	RCC_AHB1ENR
	.align	2
	.type	RCC_AHB1ENR, %object
	.size	RCC_AHB1ENR, 4
RCC_AHB1ENR:
	.word	1073887280
	.global	RCC_APB2ENR
	.align	2
	.type	RCC_APB2ENR, %object
	.size	RCC_APB2ENR, 4
RCC_APB2ENR:
	.word	1073887300
	.global	RCC_APB1ENR
	.align	2
	.type	RCC_APB1ENR, %object
	.size	RCC_APB1ENR, 4
RCC_APB1ENR:
	.word	1073887296
	.global	GPIOB_MODER
	.align	2
	.type	GPIOB_MODER, %object
	.size	GPIOB_MODER, 4
GPIOB_MODER:
	.word	1073873920
	.global	GPIOB_OTYPER
	.align	2
	.type	GPIOB_OTYPER, %object
	.size	GPIOB_OTYPER, 4
GPIOB_OTYPER:
	.word	1073873924
	.global	GPIOB_ODR
	.align	2
	.type	GPIOB_ODR, %object
	.size	GPIOB_ODR, 4
GPIOB_ODR:
	.word	1073873940
	.global	GPIOB_PUPDR
	.align	2
	.type	GPIOB_PUPDR, %object
	.size	GPIOB_PUPDR, 4
GPIOB_PUPDR:
	.word	1073873932
	.global	GPIOB_AFRL
	.align	2
	.type	GPIOB_AFRL, %object
	.size	GPIOB_AFRL, 4
GPIOB_AFRL:
	.word	1073873952
	.global	GPIOB_AFRH
	.align	2
	.type	GPIOB_AFRH, %object
	.size	GPIOB_AFRH, 4
GPIOB_AFRH:
	.word	1073873956
	.global	GPIOA_MODER
	.align	2
	.type	GPIOA_MODER, %object
	.size	GPIOA_MODER, 4
GPIOA_MODER:
	.word	1073872896
	.global	GPIOA_OTYPER
	.align	2
	.type	GPIOA_OTYPER, %object
	.size	GPIOA_OTYPER, 4
GPIOA_OTYPER:
	.word	1073872900
	.global	GPIOA_ODR
	.align	2
	.type	GPIOA_ODR, %object
	.size	GPIOA_ODR, 4
GPIOA_ODR:
	.word	1073872916
	.global	GPIOA_PUPDR
	.align	2
	.type	GPIOA_PUPDR, %object
	.size	GPIOA_PUPDR, 4
GPIOA_PUPDR:
	.word	1073872908
	.global	GPIOA_AFRL
	.align	2
	.type	GPIOA_AFRL, %object
	.size	GPIOA_AFRL, 4
GPIOA_AFRL:
	.word	1073872928
	.global	TIM10_CR1
	.align	2
	.type	TIM10_CR1, %object
	.size	TIM10_CR1, 4
TIM10_CR1:
	.word	1073824768
	.global	TIM10_CNT
	.align	2
	.type	TIM10_CNT, %object
	.size	TIM10_CNT, 4
TIM10_CNT:
	.word	1073824804
	.global	TIM10_PSC
	.align	2
	.type	TIM10_PSC, %object
	.size	TIM10_PSC, 4
TIM10_PSC:
	.word	1073824808
	.global	TIM10_ARR
	.align	2
	.type	TIM10_ARR, %object
	.size	TIM10_ARR, 4
TIM10_ARR:
	.word	1073824812
	.global	TIM10_SR
	.align	2
	.type	TIM10_SR, %object
	.size	TIM10_SR, 4
TIM10_SR:
	.word	1073824784
	.global	TIM10_EGR
	.align	2
	.type	TIM10_EGR, %object
	.size	TIM10_EGR, 4
TIM10_EGR:
	.word	1073824788
	.global	TIM10_DIER
	.align	2
	.type	TIM10_DIER, %object
	.size	TIM10_DIER, 4
TIM10_DIER:
	.word	1073824780
	.global	TIM10_CCMR1
	.align	2
	.type	TIM10_CCMR1, %object
	.size	TIM10_CCMR1, 4
TIM10_CCMR1:
	.word	1073824792
	.global	TIM10_CCR1
	.align	2
	.type	TIM10_CCR1, %object
	.size	TIM10_CCR1, 4
TIM10_CCR1:
	.word	1073824820
	.global	TIM10_CCER
	.align	2
	.type	TIM10_CCER, %object
	.size	TIM10_CCER, 4
TIM10_CCER:
	.word	1073824800
	.global	NVIC_ISER
	.align	2
	.type	NVIC_ISER, %object
	.size	NVIC_ISER, 4
NVIC_ISER:
	.word	-536813312
	.global	NVIC_ICER
	.align	2
	.type	NVIC_ICER, %object
	.size	NVIC_ICER, 4
NVIC_ICER:
	.word	-536813184
	.global	NVIC_ISPR
	.align	2
	.type	NVIC_ISPR, %object
	.size	NVIC_ISPR, 4
NVIC_ISPR:
	.word	-536813056
	.global	NVIC_ICPR
	.align	2
	.type	NVIC_ICPR, %object
	.size	NVIC_ICPR, 4
NVIC_ICPR:
	.word	-536812928
	.global	NVIC_IABR
	.align	2
	.type	NVIC_IABR, %object
	.size	NVIC_IABR, 4
NVIC_IABR:
	.word	-536812800
	.global	NVIC_IPR
	.align	2
	.type	NVIC_IPR, %object
	.size	NVIC_IPR, 4
NVIC_IPR:
	.word	-536812544
	.global	USART2_SR
	.align	2
	.type	USART2_SR, %object
	.size	USART2_SR, 4
USART2_SR:
	.word	1073759232
	.global	USART2_DR
	.align	2
	.type	USART2_DR, %object
	.size	USART2_DR, 4
USART2_DR:
	.word	1073759236
	.global	USART2_BRR
	.align	2
	.type	USART2_BRR, %object
	.size	USART2_BRR, 4
USART2_BRR:
	.word	1073759240
	.global	USART2_CR1
	.align	2
	.type	USART2_CR1, %object
	.size	USART2_CR1, 4
USART2_CR1:
	.word	1073759244
	.global	USART2_CR2
	.align	2
	.type	USART2_CR2, %object
	.size	USART2_CR2, 4
USART2_CR2:
	.word	1073759248
	.global	USART2_CR3
	.align	2
	.type	USART2_CR3, %object
	.size	USART2_CR3, 4
USART2_CR3:
	.word	1073759252
	.global	USART2_GTPR
	.align	2
	.type	USART2_GTPR, %object
	.size	USART2_GTPR, 4
USART2_GTPR:
	.word	1073759256
	.global	DMA1_LISR
	.align	2
	.type	DMA1_LISR, %object
	.size	DMA1_LISR, 4
DMA1_LISR:
	.word	1073897472
	.global	DMA1_HISR
	.align	2
	.type	DMA1_HISR, %object
	.size	DMA1_HISR, 4
DMA1_HISR:
	.word	1073897476
	.global	DMA1_LIFCR
	.align	2
	.type	DMA1_LIFCR, %object
	.size	DMA1_LIFCR, 4
DMA1_LIFCR:
	.word	1073897480
	.global	DMA1_HIFCR
	.align	2
	.type	DMA1_HIFCR, %object
	.size	DMA1_HIFCR, 4
DMA1_HIFCR:
	.word	1073897484
	.global	DMA1_S6CR
	.align	2
	.type	DMA1_S6CR, %object
	.size	DMA1_S6CR, 4
DMA1_S6CR:
	.word	1073897632
	.global	DMA1_S6NDTR
	.align	2
	.type	DMA1_S6NDTR, %object
	.size	DMA1_S6NDTR, 4
DMA1_S6NDTR:
	.word	1073897636
	.global	DMA1_S6PAR
	.align	2
	.type	DMA1_S6PAR, %object
	.size	DMA1_S6PAR, 4
DMA1_S6PAR:
	.word	1073897640
	.global	DMA1_S6M0AR
	.align	2
	.type	DMA1_S6M0AR, %object
	.size	DMA1_S6M0AR, 4
DMA1_S6M0AR:
	.word	1073897644
	.global	DMA1_S6M1AR
	.align	2
	.type	DMA1_S6M1AR, %object
	.size	DMA1_S6M1AR, 4
DMA1_S6M1AR:
	.word	1073897648
	.global	DMA1_S6FCR
	.align	2
	.type	DMA1_S6FCR, %object
	.size	DMA1_S6FCR, 4
DMA1_S6FCR:
	.word	1073897652
	.global	mystr
	.align	2
	.type	mystr, %object
	.size	mystr, 29
mystr:
	.ascii	"\015\012school of linux Dharmapuri\000"
	.global	str
	.align	2
	.type	str, %object
	.size	str, 31
str:
	.ascii	"\015\012ARM CORTEX STM32F PROESSOR\015\012\000"
	.text
	.align	1
	.global	main
	.syntax unified
	.thumb
	.thumb_func
	.type	main, %function
main:
.LFB0:
	.file 1 "main.c"
	.loc 1 86 1
	.cfi_startproc
	@ args = 0, pretend = 0, frame = 8
	@ frame_needed = 1, uses_anonymous_args = 0
	push	{r7, lr}
	.cfi_def_cfa_offset 8
	.cfi_offset 7, -8
	.cfi_offset 14, -4
	sub	sp, sp, #8
	.cfi_def_cfa_offset 16
	add	r7, sp, #0
	.cfi_def_cfa_register 7
	.loc 1 88 15
	ldr	r0, .L3
	bl	strlen
	mov	r3, r0
	.loc 1 88 10
	str	r3, [r7, #4]
	.loc 1 89 15
	ldr	r0, .L3+4
	bl	strlen
	mov	r3, r0
	.loc 1 89 10
	str	r3, [r7]
	.loc 1 91 6
	bl	RCC_CONFIG
	.loc 1 92 6
	bl	GPIO_CONFIG
	.loc 1 94 6
	bl	USART2_INIT
	.loc 1 95 6
	bl	DMA_INIT
	.loc 1 96 6
	ldr	r3, .L3
	ldr	r1, [r7, #4]
	mov	r0, r3
	bl	DMA1_SEND
	.loc 1 97 6
	ldr	r3, .L3+4
	ldr	r1, [r7]
	mov	r0, r3
	bl	DMA1_SEND
.L2:
	.loc 1 98 11 discriminator 1
	b	.L2
.L4:
	.align	2
.L3:
	.word	mystr
	.word	str
	.cfi_endproc
.LFE0:
	.size	main, .-main
	.align	1
	.global	RCC_CONFIG
	.syntax unified
	.thumb
	.thumb_func
	.type	RCC_CONFIG, %function
RCC_CONFIG:
.LFB1:
	.loc 1 103 1
	.cfi_startproc
	@ args = 0, pretend = 0, frame = 0
	@ frame_needed = 1, uses_anonymous_args = 0
	@ link register save eliminated.
	push	{r7}
	.cfi_def_cfa_offset 4
	.cfi_offset 7, -4
	add	r7, sp, #0
	.cfi_def_cfa_register 7
	.loc 1 104 22
	ldr	r3, .L7
	ldr	r3, [r3]
	ldr	r2, [r3]
	.loc 1 104 7
	ldr	r3, .L7
	ldr	r3, [r3]
	.loc 1 104 35
	orr	r2, r2, #4
	.loc 1 104 20
	str	r2, [r3]
	.loc 1 105 22
	ldr	r3, .L7
	ldr	r3, [r3]
	ldr	r2, [r3]
	.loc 1 105 7
	ldr	r3, .L7
	ldr	r3, [r3]
	.loc 1 105 35
	orr	r2, r2, #2
	.loc 1 105 20
	str	r2, [r3]
	.loc 1 106 22
	ldr	r3, .L7
	ldr	r3, [r3]
	ldr	r2, [r3]
	.loc 1 106 7
	ldr	r3, .L7
	ldr	r3, [r3]
	.loc 1 106 35
	orr	r2, r2, #1
	.loc 1 106 20
	str	r2, [r3]
	.loc 1 108 17
	ldr	r3, .L7+4
	ldr	r3, [r3]
	ldr	r2, [r3]
	.loc 1 108 7
	ldr	r3, .L7+4
	ldr	r3, [r3]
	.loc 1 108 25
	bic	r2, r2, #65536
	.loc 1 108 15
	str	r2, [r3]
	.loc 1 109 17
	ldr	r3, .L7+4
	ldr	r3, [r3]
	ldr	r2, [r3]
	.loc 1 109 7
	ldr	r3, .L7+4
	ldr	r3, [r3]
	.loc 1 109 25
	orr	r2, r2, #65536
	.loc 1 109 15
	str	r2, [r3]
	.loc 1 110 12
	nop
.L6:
	.loc 1 110 14 discriminator 1
	ldr	r3, .L7+4
	ldr	r3, [r3]
	ldr	r3, [r3]
	.loc 1 110 22 discriminator 1
	and	r3, r3, #131072
	.loc 1 110 12 discriminator 1
	cmp	r3, #0
	beq	.L6
	.loc 1 112 19
	ldr	r3, .L7+8
	ldr	r3, [r3]
	ldr	r2, [r3]
	.loc 1 112 7
	ldr	r3, .L7+8
	ldr	r3, [r3]
	.loc 1 112 29
	bic	r2, r2, #3
	.loc 1 112 17
	str	r2, [r3]
	.loc 1 113 19
	ldr	r3, .L7+8
	ldr	r3, [r3]
	ldr	r2, [r3]
	.loc 1 113 7
	ldr	r3, .L7+8
	ldr	r3, [r3]
	.loc 1 113 29
	orr	r2, r2, #1
	.loc 1 113 17
	str	r2, [r3]
	.loc 1 114 12
	nop
	.loc 1 114 15
	ldr	r3, .L7+8
	ldr	r3, [r3]
	ldr	r3, [r3]
	.loc 1 116 22
	ldr	r3, .L7+12
	ldr	r3, [r3]
	ldr	r2, [r3]
	.loc 1 116 7
	ldr	r3, .L7+12
	ldr	r3, [r3]
	.loc 1 116 35
	orr	r2, r2, #131072
	.loc 1 116 20
	str	r2, [r3]
	.loc 1 118 22
	ldr	r3, .L7+16
	ldr	r3, [r3]
	ldr	r2, [r3]
	.loc 1 118 7
	ldr	r3, .L7+16
	ldr	r3, [r3]
	.loc 1 118 34
	orr	r2, r2, #131072
	.loc 1 118 20
	str	r2, [r3]
	.loc 1 120 22
	ldr	r3, .L7
	ldr	r3, [r3]
	ldr	r2, [r3]
	.loc 1 120 7
	ldr	r3, .L7
	ldr	r3, [r3]
	.loc 1 120 35
	orr	r2, r2, #2097152
	.loc 1 120 20
	str	r2, [r3]
	.loc 1 121 1
	nop
	mov	sp, r7
	.cfi_def_cfa_register 13
	@ sp needed
	ldr	r7, [sp], #4
	.cfi_restore 7
	.cfi_def_cfa_offset 0
	bx	lr
.L8:
	.align	2
.L7:
	.word	RCC_AHB1ENR
	.word	RCC_CR
	.word	RCC_CFGR
	.word	RCC_APB2ENR
	.word	RCC_APB1ENR
	.cfi_endproc
.LFE1:
	.size	RCC_CONFIG, .-RCC_CONFIG
	.align	1
	.global	GPIO_CONFIG
	.syntax unified
	.thumb
	.thumb_func
	.type	GPIO_CONFIG, %function
GPIO_CONFIG:
.LFB2:
	.loc 1 123 1
	.cfi_startproc
	@ args = 0, pretend = 0, frame = 0
	@ frame_needed = 1, uses_anonymous_args = 0
	@ link register save eliminated.
	push	{r7}
	.cfi_def_cfa_offset 4
	.cfi_offset 7, -4
	add	r7, sp, #0
	.cfi_def_cfa_register 7
	.loc 1 124 23
	ldr	r3, .L10
	ldr	r3, [r3]
	ldr	r2, [r3]
	.loc 1 124 8
	ldr	r3, .L10
	ldr	r3, [r3]
	.loc 1 124 36
	bic	r2, r2, #240
	.loc 1 124 21
	str	r2, [r3]
	.loc 1 125 23
	ldr	r3, .L10
	ldr	r3, [r3]
	ldr	r2, [r3]
	.loc 1 125 8
	ldr	r3, .L10
	ldr	r3, [r3]
	.loc 1 125 36
	orr	r2, r2, #160
	.loc 1 125 21
	str	r2, [r3]
	.loc 1 127 24
	ldr	r3, .L10+4
	ldr	r3, [r3]
	ldr	r2, [r3]
	.loc 1 127 8
	ldr	r3, .L10+4
	ldr	r3, [r3]
	.loc 1 127 38
	bic	r2, r2, #4
	.loc 1 127 22
	str	r2, [r3]
	.loc 1 129 23
	ldr	r3, .L10+8
	ldr	r3, [r3]
	ldr	r2, [r3]
	.loc 1 129 8
	ldr	r3, .L10+8
	ldr	r3, [r3]
	.loc 1 129 36
	bic	r2, r2, #240
	.loc 1 129 21
	str	r2, [r3]
	.loc 1 131 22
	ldr	r3, .L10+12
	ldr	r3, [r3]
	ldr	r2, [r3]
	.loc 1 131 8
	ldr	r3, .L10+12
	ldr	r3, [r3]
	.loc 1 131 34
	bic	r2, r2, #3840
	.loc 1 131 20
	str	r2, [r3]
	.loc 1 132 22
	ldr	r3, .L10+12
	ldr	r3, [r3]
	ldr	r2, [r3]
	.loc 1 132 8
	ldr	r3, .L10+12
	ldr	r3, [r3]
	.loc 1 132 34
	orr	r2, r2, #1792
	.loc 1 132 20
	str	r2, [r3]
	.loc 1 134 22
	ldr	r3, .L10+12
	ldr	r3, [r3]
	ldr	r2, [r3]
	.loc 1 134 8
	ldr	r3, .L10+12
	ldr	r3, [r3]
	.loc 1 134 34
	bic	r2, r2, #61440
	.loc 1 134 20
	str	r2, [r3]
	.loc 1 135 22
	ldr	r3, .L10+12
	ldr	r3, [r3]
	ldr	r2, [r3]
	.loc 1 135 8
	ldr	r3, .L10+12
	ldr	r3, [r3]
	.loc 1 135 34
	orr	r2, r2, #28672
	.loc 1 135 20
	str	r2, [r3]
	.loc 1 136 1
	nop
	mov	sp, r7
	.cfi_def_cfa_register 13
	@ sp needed
	ldr	r7, [sp], #4
	.cfi_restore 7
	.cfi_def_cfa_offset 0
	bx	lr
.L11:
	.align	2
.L10:
	.word	GPIOA_MODER
	.word	GPIOA_OTYPER
	.word	GPIOA_PUPDR
	.word	GPIOA_AFRL
	.cfi_endproc
.LFE2:
	.size	GPIO_CONFIG, .-GPIO_CONFIG
	.align	1
	.global	USART2_INIT
	.syntax unified
	.thumb
	.thumb_func
	.type	USART2_INIT, %function
USART2_INIT:
.LFB3:
	.loc 1 139 1
	.cfi_startproc
	@ args = 0, pretend = 0, frame = 0
	@ frame_needed = 1, uses_anonymous_args = 0
	@ link register save eliminated.
	push	{r7}
	.cfi_def_cfa_offset 4
	.cfi_offset 7, -4
	add	r7, sp, #0
	.cfi_def_cfa_register 7
	.loc 1 141 16
	ldr	r3, .L13
	ldr	r3, [r3]
	ldr	r2, [r3]
	.loc 1 141 2
	ldr	r3, .L13
	ldr	r3, [r3]
	.loc 1 141 28
	orr	r2, r2, #8192
	.loc 1 141 14
	str	r2, [r3]
	.loc 1 143 16
	ldr	r3, .L13+4
	ldr	r3, [r3]
	ldr	r3, [r3]
	.loc 1 143 2
	ldr	r2, .L13+4
	ldr	r2, [r2]
	.loc 1 143 28
	bic	r3, r3, #65280
	bic	r3, r3, #240
	.loc 1 143 14
	str	r3, [r2]
	.loc 1 145 16
	ldr	r3, .L13+4
	ldr	r3, [r3]
	ldr	r3, [r3]
	.loc 1 145 2
	ldr	r2, .L13+4
	ldr	r2, [r2]
	.loc 1 145 28
	orr	r3, r3, #5184
	orr	r3, r3, #16
	.loc 1 145 14
	str	r3, [r2]
	.loc 1 147 16
	ldr	r3, .L13+4
	ldr	r3, [r3]
	ldr	r2, [r3]
	.loc 1 147 2
	ldr	r3, .L13+4
	ldr	r3, [r3]
	.loc 1 147 28
	bic	r2, r2, #15
	.loc 1 147 14
	str	r2, [r3]
	.loc 1 149 23
	ldr	r3, .L13+4
	ldr	r3, [r3]
	ldr	r2, [r3]
	.loc 1 149 9
	ldr	r3, .L13+4
	ldr	r3, [r3]
	.loc 1 149 34
	orr	r2, r2, #4
	.loc 1 149 21
	str	r2, [r3]
	.loc 1 151 16
	ldr	r3, .L13
	ldr	r3, [r3]
	ldr	r2, [r3]
	.loc 1 151 2
	ldr	r3, .L13
	ldr	r3, [r3]
	.loc 1 151 28
	orr	r2, r2, #32768
	.loc 1 151 14
	str	r2, [r3]
	.loc 1 153 16
	ldr	r3, .L13
	ldr	r3, [r3]
	ldr	r2, [r3]
	.loc 1 153 2
	ldr	r3, .L13
	ldr	r3, [r3]
	.loc 1 153 28
	bic	r2, r2, #4096
	.loc 1 153 14
	str	r2, [r3]
	.loc 1 155 23
	ldr	r3, .L13
	ldr	r3, [r3]
	ldr	r2, [r3]
	.loc 1 155 9
	ldr	r3, .L13
	ldr	r3, [r3]
	.loc 1 155 35
	orr	r2, r2, #8
	.loc 1 155 21
	str	r2, [r3]
	.loc 1 157 23
	ldr	r3, .L13+8
	ldr	r3, [r3]
	ldr	r2, [r3]
	.loc 1 157 9
	ldr	r3, .L13+8
	ldr	r3, [r3]
	.loc 1 157 35
	orr	r2, r2, #128
	.loc 1 157 21
	str	r2, [r3]
	.loc 1 159 16
	ldr	r3, .L13+8
	ldr	r3, [r3]
	ldr	r2, [r3]
	.loc 1 159 2
	ldr	r3, .L13+8
	ldr	r3, [r3]
	.loc 1 159 28
	bic	r2, r2, #8
	.loc 1 159 14
	str	r2, [r3]
	.loc 1 161 15
	ldr	r3, .L13+12
	ldr	r3, [r3]
	ldr	r2, [r3]
	.loc 1 161 2
	ldr	r3, .L13+12
	ldr	r3, [r3]
	.loc 1 161 26
	bic	r2, r2, #64
	.loc 1 161 13
	str	r2, [r3]
	.loc 1 162 1
	nop
	mov	sp, r7
	.cfi_def_cfa_register 13
	@ sp needed
	ldr	r7, [sp], #4
	.cfi_restore 7
	.cfi_def_cfa_offset 0
	bx	lr
.L14:
	.align	2
.L13:
	.word	USART2_CR1
	.word	USART2_BRR
	.word	USART2_CR3
	.word	USART2_SR
	.cfi_endproc
.LFE3:
	.size	USART2_INIT, .-USART2_INIT
	.align	1
	.global	DMA_INIT
	.syntax unified
	.thumb
	.thumb_func
	.type	DMA_INIT, %function
DMA_INIT:
.LFB4:
	.loc 1 164 1
	.cfi_startproc
	@ args = 0, pretend = 0, frame = 0
	@ frame_needed = 1, uses_anonymous_args = 0
	@ link register save eliminated.
	push	{r7}
	.cfi_def_cfa_offset 4
	.cfi_offset 7, -4
	add	r7, sp, #0
	.cfi_def_cfa_register 7
	.loc 1 165 15
	ldr	r3, .L17
	ldr	r3, [r3]
	ldr	r2, [r3]
	.loc 1 165 2
	ldr	r3, .L17
	ldr	r3, [r3]
	.loc 1 165 26
	bic	r2, r2, #1
	.loc 1 165 13
	str	r2, [r3]
	.loc 1 167 7
	nop
.L16:
	.loc 1 167 9 discriminator 1
	ldr	r3, .L17
	ldr	r3, [r3]
	ldr	r3, [r3]
	.loc 1 167 20 discriminator 1
	and	r3, r3, #1
	.loc 1 167 7 discriminator 1
	cmp	r3, #0
	bne	.L16
	.loc 1 169 15
	ldr	r3, .L17
	ldr	r3, [r3]
	ldr	r2, [r3]
	.loc 1 169 2
	ldr	r3, .L17
	ldr	r3, [r3]
	.loc 1 169 26
	bic	r2, r2, #234881024
	.loc 1 169 13
	str	r2, [r3]
	.loc 1 171 15
	ldr	r3, .L17
	ldr	r3, [r3]
	ldr	r2, [r3]
	.loc 1 171 2
	ldr	r3, .L17
	ldr	r3, [r3]
	.loc 1 171 26
	orr	r2, r2, #134217728
	.loc 1 171 13
	str	r2, [r3]
	.loc 1 173 15
	ldr	r3, .L17
	ldr	r3, [r3]
	ldr	r2, [r3]
	.loc 1 173 2
	ldr	r3, .L17
	ldr	r3, [r3]
	.loc 1 173 26
	bic	r2, r2, #32
	.loc 1 173 13
	str	r2, [r3]
	.loc 1 175 15
	ldr	r3, .L17
	ldr	r3, [r3]
	ldr	r2, [r3]
	.loc 1 175 2
	ldr	r3, .L17
	ldr	r3, [r3]
	.loc 1 175 26
	bic	r2, r2, #196608
	.loc 1 175 13
	str	r2, [r3]
	.loc 1 177 16
	ldr	r3, .L17+4
	ldr	r3, [r3]
	ldr	r2, [r3]
	.loc 1 177 2
	ldr	r3, .L17+4
	ldr	r3, [r3]
	.loc 1 177 28
	bic	r2, r2, #4
	.loc 1 177 14
	str	r2, [r3]
	.loc 1 179 15
	ldr	r3, .L17
	ldr	r3, [r3]
	ldr	r2, [r3]
	.loc 1 179 2
	ldr	r3, .L17
	ldr	r3, [r3]
	.loc 1 179 26
	bic	r2, r2, #25165824
	.loc 1 179 13
	str	r2, [r3]
	.loc 1 181 15
	ldr	r3, .L17
	ldr	r3, [r3]
	ldr	r2, [r3]
	.loc 1 181 2
	ldr	r3, .L17
	ldr	r3, [r3]
	.loc 1 181 26
	bic	r2, r2, #6291456
	.loc 1 181 13
	str	r2, [r3]
	.loc 1 183 15
	ldr	r3, .L17
	ldr	r3, [r3]
	ldr	r2, [r3]
	.loc 1 183 2
	ldr	r3, .L17
	ldr	r3, [r3]
	.loc 1 183 26
	bic	r2, r2, #524288
	.loc 1 183 13
	str	r2, [r3]
	.loc 1 185 15
	ldr	r3, .L17
	ldr	r3, [r3]
	ldr	r2, [r3]
	.loc 1 185 2
	ldr	r3, .L17
	ldr	r3, [r3]
	.loc 1 185 26
	bic	r2, r2, #262144
	.loc 1 185 13
	str	r2, [r3]
	.loc 1 187 15
	ldr	r3, .L17
	ldr	r3, [r3]
	ldr	r2, [r3]
	.loc 1 187 2
	ldr	r3, .L17
	ldr	r3, [r3]
	.loc 1 187 26
	bic	r2, r2, #32768
	.loc 1 187 13
	str	r2, [r3]
	.loc 1 189 15
	ldr	r3, .L17
	ldr	r3, [r3]
	ldr	r2, [r3]
	.loc 1 189 2
	ldr	r3, .L17
	ldr	r3, [r3]
	.loc 1 189 26
	bic	r2, r2, #24576
	.loc 1 189 13
	str	r2, [r3]
	.loc 1 191 15
	ldr	r3, .L17
	ldr	r3, [r3]
	ldr	r2, [r3]
	.loc 1 191 2
	ldr	r3, .L17
	ldr	r3, [r3]
	.loc 1 191 26
	bic	r2, r2, #6144
	.loc 1 191 13
	str	r2, [r3]
	.loc 1 193 15
	ldr	r3, .L17
	ldr	r3, [r3]
	ldr	r2, [r3]
	.loc 1 193 2
	ldr	r3, .L17
	ldr	r3, [r3]
	.loc 1 193 26
	orr	r2, r2, #1024
	.loc 1 193 13
	str	r2, [r3]
	.loc 1 195 15
	ldr	r3, .L17
	ldr	r3, [r3]
	ldr	r2, [r3]
	.loc 1 195 2
	ldr	r3, .L17
	ldr	r3, [r3]
	.loc 1 195 26
	bic	r2, r2, #512
	.loc 1 195 13
	str	r2, [r3]
	.loc 1 197 16
	ldr	r3, .L17+8
	ldr	r2, [r3]
	.loc 1 197 2
	ldr	r3, .L17+12
	ldr	r3, [r3]
	.loc 1 197 14
	str	r2, [r3]
	.loc 1 199 15
	ldr	r3, .L17
	ldr	r3, [r3]
	ldr	r2, [r3]
	.loc 1 199 2
	ldr	r3, .L17
	ldr	r3, [r3]
	.loc 1 199 26
	bic	r2, r2, #256
	.loc 1 199 13
	str	r2, [r3]
	.loc 1 201 15
	ldr	r3, .L17
	ldr	r3, [r3]
	ldr	r2, [r3]
	.loc 1 201 2
	ldr	r3, .L17
	ldr	r3, [r3]
	.loc 1 201 26
	bic	r2, r2, #192
	.loc 1 201 13
	str	r2, [r3]
	.loc 1 203 15
	ldr	r3, .L17
	ldr	r3, [r3]
	ldr	r2, [r3]
	.loc 1 203 2
	ldr	r3, .L17
	ldr	r3, [r3]
	.loc 1 203 26
	orr	r2, r2, #64
	.loc 1 203 13
	str	r2, [r3]
	.loc 1 204 1
	nop
	mov	sp, r7
	.cfi_def_cfa_register 13
	@ sp needed
	ldr	r7, [sp], #4
	.cfi_restore 7
	.cfi_def_cfa_offset 0
	bx	lr
.L18:
	.align	2
.L17:
	.word	DMA1_S6CR
	.word	DMA1_S6FCR
	.word	USART2_DR
	.word	DMA1_S6PAR
	.cfi_endproc
.LFE4:
	.size	DMA_INIT, .-DMA_INIT
	.align	1
	.global	DMA1_SEND
	.syntax unified
	.thumb
	.thumb_func
	.type	DMA1_SEND, %function
DMA1_SEND:
.LFB5:
	.loc 1 206 1
	.cfi_startproc
	@ args = 0, pretend = 0, frame = 8
	@ frame_needed = 1, uses_anonymous_args = 0
	@ link register save eliminated.
	push	{r7}
	.cfi_def_cfa_offset 4
	.cfi_offset 7, -4
	sub	sp, sp, #12
	.cfi_def_cfa_offset 16
	add	r7, sp, #0
	.cfi_def_cfa_register 7
	str	r0, [r7, #4]
	str	r1, [r7]
	.loc 1 208 15
	ldr	r3, .L22
	ldr	r3, [r3]
	ldr	r2, [r3]
	.loc 1 208 2
	ldr	r3, .L22
	ldr	r3, [r3]
	.loc 1 208 26
	bic	r2, r2, #64
	.loc 1 208 13
	str	r2, [r3]
	.loc 1 210 15
	ldr	r3, .L22+4
	ldr	r3, [r3]
	ldr	r2, [r3]
	.loc 1 210 2
	ldr	r3, .L22+4
	ldr	r3, [r3]
	.loc 1 210 26
	bic	r2, r2, #1
	.loc 1 210 13
	str	r2, [r3]
	.loc 1 212 7
	nop
.L20:
	.loc 1 212 9 discriminator 1
	ldr	r3, .L22+4
	ldr	r3, [r3]
	ldr	r3, [r3]
	.loc 1 212 20 discriminator 1
	and	r3, r3, #1
	.loc 1 212 7 discriminator 1
	cmp	r3, #0
	bne	.L20
	.loc 1 216 2
	ldr	r3, .L22+8
	ldr	r3, [r3]
	.loc 1 216 15
	ldr	r2, [r7, #4]
	str	r2, [r3]
	.loc 1 218 2
	ldr	r3, .L22+12
	ldr	r3, [r3]
	.loc 1 218 15
	ldr	r2, [r7]
	str	r2, [r3]
	.loc 1 220 15
	ldr	r3, .L22+4
	ldr	r3, [r3]
	ldr	r2, [r3]
	.loc 1 220 2
	ldr	r3, .L22+4
	ldr	r3, [r3]
	.loc 1 220 26
	orr	r2, r2, #1
	.loc 1 220 13
	str	r2, [r3]
	.loc 1 222 7
	nop
.L21:
	.loc 1 222 10 discriminator 1
	ldr	r3, .L22+16
	ldr	r3, [r3]
	ldr	r3, [r3]
	.loc 1 222 21 discriminator 1
	and	r3, r3, #2097152
	.loc 1 222 7 discriminator 1
	cmp	r3, #0
	beq	.L21
	.loc 1 224 2
	ldr	r3, .L22+20
	ldr	r3, [r3]
	.loc 1 224 14
	mov	r2, #3145728
	str	r2, [r3]
	.loc 1 225 1
	nop
	adds	r7, r7, #12
	.cfi_def_cfa_offset 4
	mov	sp, r7
	.cfi_def_cfa_register 13
	@ sp needed
	ldr	r7, [sp], #4
	.cfi_restore 7
	.cfi_def_cfa_offset 0
	bx	lr
.L23:
	.align	2
.L22:
	.word	USART2_SR
	.word	DMA1_S6CR
	.word	DMA1_S6M0AR
	.word	DMA1_S6NDTR
	.word	DMA1_HISR
	.word	DMA1_HIFCR
	.cfi_endproc
.LFE5:
	.size	DMA1_SEND, .-DMA1_SEND
.Letext0: