	.cpu cortex-m4
	.arch armv7e-m
	.fpu fpv4-sp-d16
	.eabi_attribute 27, 1
	.eabi_attribute 28, 1
	.eabi_attribute 20, 1
	.eabi_attribute 21, 1
	.eabi_attribute 23, 3
	.eabi_attribute 24, 1
	.eabi_attribute 25, 1
	.eabi_attribute 26, 1
	.eabi_attribute 30, 6
	.eabi_attribute 34, 1
	.eabi_attribute 18, 4
	.file	"main.c"
	.text
.Ltext0:
	.cfi_sections	.debug_frame
	.global	RCC_CR
	.data
	.align	2
	.type	RCC_CR, %object
	.size	RCC_CR, 4
RCC_CR:
	.word	1073887232
	.global	RCC_PLLCFGR
	.align	2
	.type	RCC_PLLCFGR, %object
	.size	RCC_PLLCFGR, 4
RCC_PLLCFGR:
	.word	1073887236
	.global	RCC_CFGR
	.align	2
	.type	RCC_CFGR, %object
	.size	RCC_CFGR, 4
RCC_CFGR:
	.word	1073887240
	.global	RCC_AHB1ENR
	.align	2
	.type	RCC_AHB1ENR, %object
	.size	RCC_AHB1ENR, 4
RCC_AHB1ENR:
	.word	1073887280
	.global	RCC_APB2ENR
	.align	2
	.type	RCC_APB2ENR, %object
	.size	RCC_APB2ENR, 4
RCC_APB2ENR:
	.word	1073887300
	.global	GPIOC_MODER
	.align	2
	.type	GPIOC_MODER, %object
	.size	GPIOC_MODER, 4
GPIOC_MODER:
	.word	1073874944
	.global	GPIOC_OTYPER
	.align	2
	.type	GPIOC_OTYPER, %object
	.size	GPIOC_OTYPER, 4
GPIOC_OTYPER:
	.word	1073874948
	.global	GPIOC_ODR
	.align	2
	.type	GPIOC_ODR, %object
	.size	GPIOC_ODR, 4
GPIOC_ODR:
	.word	1073874964
	.global	STK_CTRL
	.align	2
	.type	STK_CTRL, %object
	.size	STK_CTRL, 4
STK_CTRL:
	.word	-536813552
	.global	STK_LOAD
	.align	2
	.type	STK_LOAD, %object
	.size	STK_LOAD, 4
STK_LOAD:
	.word	-536813548
	.global	STK_VAL
	.align	2
	.type	STK_VAL, %object
	.size	STK_VAL, 4
STK_VAL:
	.word	-536813544
	.global	TIM10_CR1
	.align	2
	.type	TIM10_CR1, %object
	.size	TIM10_CR1, 4
TIM10_CR1:
	.word	1073824768
	.global	TIM10_CNT
	.align	2
	.type	TIM10_CNT, %object
	.size	TIM10_CNT, 4
TIM10_CNT:
	.word	1073824804
	.global	TIM10_PSC
	.align	2
	.type	TIM10_PSC, %object
	.size	TIM10_PSC, 4
TIM10_PSC:
	.word	1073824808
	.global	TIM10_ARR
	.align	2
	.type	TIM10_ARR, %object
	.size	TIM10_ARR, 4
TIM10_ARR:
	.word	1073824812
	.global	TIM10_SR
	.align	2
	.type	TIM10_SR, %object
	.size	TIM10_SR, 4
TIM10_SR:
	.word	1073824784
	.global	TIM10_EGR
	.align	2
	.type	TIM10_EGR, %object
	.size	TIM10_EGR, 4
TIM10_EGR:
	.word	1073824788
	.global	TIM10_DIER
	.align	2
	.type	TIM10_DIER, %object
	.size	TIM10_DIER, 4
TIM10_DIER:
	.word	1073824780
	.global	TIM11_CR1
	.align	2
	.type	TIM11_CR1, %object
	.size	TIM11_CR1, 4
TIM11_CR1:
	.word	1073825792
	.global	TIM11_CNT
	.align	2
	.type	TIM11_CNT, %object
	.size	TIM11_CNT, 4
TIM11_CNT:
	.word	1073825828
	.global	TIM11_PSC
	.align	2
	.type	TIM11_PSC, %object
	.size	TIM11_PSC, 4
TIM11_PSC:
	.word	1073825832
	.global	TIM11_ARR
	.align	2
	.type	TIM11_ARR, %object
	.size	TIM11_ARR, 4
TIM11_ARR:
	.word	1073825836
	.global	TIM11_SR
	.align	2
	.type	TIM11_SR, %object
	.size	TIM11_SR, 4
TIM11_SR:
	.word	1073825808
	.global	TIM11_EGR
	.align	2
	.type	TIM11_EGR, %object
	.size	TIM11_EGR, 4
TIM11_EGR:
	.word	1073825812
	.global	TIM11_DIER
	.align	2
	.type	TIM11_DIER, %object
	.size	TIM11_DIER, 4
TIM11_DIER:
	.word	1073825804
	.global	NVIC_ISER
	.align	2
	.type	NVIC_ISER, %object
	.size	NVIC_ISER, 4
NVIC_ISER:
	.word	-536813312
	.global	NVIC_ICER
	.align	2
	.type	NVIC_ICER, %object
	.size	NVIC_ICER, 4
NVIC_ICER:
	.word	-536813184
	.global	NVIC_ISPR
	.align	2
	.type	NVIC_ISPR, %object
	.size	NVIC_ISPR, 4
NVIC_ISPR:
	.word	-536813056
	.global	NVIC_ICPR
	.align	2
	.type	NVIC_ICPR, %object
	.size	NVIC_ICPR, 4
NVIC_ICPR:
	.word	-536812928
	.global	NVIC_IABR
	.align	2
	.type	NVIC_IABR, %object
	.size	NVIC_IABR, 4
NVIC_IABR:
	.word	-536812800
	.global	NVIC_IPR
	.align	2
	.type	NVIC_IPR, %object
	.size	NVIC_IPR, 4
NVIC_IPR:
	.word	-536812544
	.text
	.align	1
	.global	main
	.syntax unified
	.thumb
	.thumb_func
	.type	main, %function
main:
.LFB0:
	.file 1 "main.c"
	.loc 1 56 1
	.cfi_startproc
	@ args = 0, pretend = 0, frame = 0
	@ frame_needed = 1, uses_anonymous_args = 0
	push	{r7, lr}
	.cfi_def_cfa_offset 8
	.cfi_offset 7, -8
	.cfi_offset 14, -4
	add	r7, sp, #0
	.cfi_def_cfa_register 7
	.loc 1 58 6
	bl	RCC_CONFIG
	.loc 1 59 6
	bl	TIMER10_CONFIG
	.loc 1 60 6
	bl	TIMER11_CONFIG
	.loc 1 61 6
	bl	GPIO_CONFIG
.L2:
	.loc 1 64 7 discriminator 1
	bl	TIMER10_LED
	.loc 1 65 2 discriminator 1
	bl	TIMER11_LED
	.loc 1 64 7 discriminator 1
	b	.L2
	.cfi_endproc
.LFE0:
	.size	main, .-main
	.align	1
	.global	RCC_CONFIG
	.syntax unified
	.thumb
	.thumb_func
	.type	RCC_CONFIG, %function
RCC_CONFIG:
.LFB1:
	.loc 1 70 1
	.cfi_startproc
	@ args = 0, pretend = 0, frame = 0
	@ frame_needed = 1, uses_anonymous_args = 0
	@ link register save eliminated.
	push	{r7}
	.cfi_def_cfa_offset 4
	.cfi_offset 7, -4
	add	r7, sp, #0
	.cfi_def_cfa_register 7
	.loc 1 71 22
	ldr	r3, .L5
	ldr	r3, [r3]
	ldr	r2, [r3]
	.loc 1 71 7
	ldr	r3, .L5
	ldr	r3, [r3]
	.loc 1 71 35
	orr	r2, r2, #4
	.loc 1 71 20
	str	r2, [r3]
	.loc 1 72 17
	ldr	r3, .L5+4
	ldr	r3, [r3]
	ldr	r2, [r3]
	.loc 1 72 7
	ldr	r3, .L5+4
	ldr	r3, [r3]
	.loc 1 72 25
	bic	r2, r2, #65536
	.loc 1 72 15
	str	r2, [r3]
	.loc 1 73 17
	ldr	r3, .L5+4
	ldr	r3, [r3]
	ldr	r2, [r3]
	.loc 1 73 7
	ldr	r3, .L5+4
	ldr	r3, [r3]
	.loc 1 73 25
	orr	r2, r2, #65536
	.loc 1 73 15
	str	r2, [r3]
	.loc 1 74 12
	nop
.L4:
	.loc 1 74 14 discriminator 1
	ldr	r3, .L5+4
	ldr	r3, [r3]
	ldr	r3, [r3]
	.loc 1 74 22 discriminator 1
	and	r3, r3, #131072
	.loc 1 74 12 discriminator 1
	cmp	r3, #0
	beq	.L4
	.loc 1 76 19
	ldr	r3, .L5+8
	ldr	r3, [r3]
	ldr	r2, [r3]
	.loc 1 76 7
	ldr	r3, .L5+8
	ldr	r3, [r3]
	.loc 1 76 29
	bic	r2, r2, #3
	.loc 1 76 17
	str	r2, [r3]
	.loc 1 77 19
	ldr	r3, .L5+8
	ldr	r3, [r3]
	ldr	r2, [r3]
	.loc 1 77 7
	ldr	r3, .L5+8
	ldr	r3, [r3]
	.loc 1 77 29
	orr	r2, r2, #1
	.loc 1 77 17
	str	r2, [r3]
	.loc 1 78 11
	nop
	.loc 1 78 14
	ldr	r3, .L5+8
	ldr	r3, [r3]
	ldr	r3, [r3]
	.loc 1 80 22
	ldr	r3, .L5+12
	ldr	r3, [r3]
	ldr	r2, [r3]
	.loc 1 80 7
	ldr	r3, .L5+12
	ldr	r3, [r3]
	.loc 1 80 35
	orr	r2, r2, #131072
	.loc 1 80 20
	str	r2, [r3]
	.loc 1 82 22
	ldr	r3, .L5+12
	ldr	r3, [r3]
	ldr	r2, [r3]
	.loc 1 82 7
	ldr	r3, .L5+12
	ldr	r3, [r3]
	.loc 1 82 35
	orr	r2, r2, #262144
	.loc 1 82 20
	str	r2, [r3]
	.loc 1 84 1
	nop
	mov	sp, r7
	.cfi_def_cfa_register 13
	@ sp needed
	ldr	r7, [sp], #4
	.cfi_restore 7
	.cfi_def_cfa_offset 0
	bx	lr
.L6:
	.align	2
.L5:
	.word	RCC_AHB1ENR
	.word	RCC_CR
	.word	RCC_CFGR
	.word	RCC_APB2ENR
	.cfi_endproc
.LFE1:
	.size	RCC_CONFIG, .-RCC_CONFIG
	.align	1
	.global	TIMER10_CONFIG
	.syntax unified
	.thumb
	.thumb_func
	.type	TIMER10_CONFIG, %function
TIMER10_CONFIG:
.LFB2:
	.loc 1 86 1
	.cfi_startproc
	@ args = 0, pretend = 0, frame = 0
	@ frame_needed = 1, uses_anonymous_args = 0
	@ link register save eliminated.
	push	{r7}
	.cfi_def_cfa_offset 4
	.cfi_offset 7, -4
	add	r7, sp, #0
	.cfi_def_cfa_register 7
	.loc 1 87 16
	ldr	r3, .L8
	ldr	r3, [r3]
	ldr	r2, [r3]
	.loc 1 87 3
	ldr	r3, .L8
	ldr	r3, [r3]
	.loc 1 87 27
	orr	r2, r2, #128
	.loc 1 87 14
	str	r2, [r3]
	.loc 1 89 26
	ldr	r3, .L8
	ldr	r2, [r3]
	.loc 1 89 2
	ldr	r3, .L8
	ldr	r3, [r3]
	.loc 1 89 26
	ldr	r2, [r2]
	.loc 1 89 13
	str	r2, [r3]
	.loc 1 91 26
	ldr	r3, .L8
	ldr	r2, [r3]
	.loc 1 91 2
	ldr	r3, .L8
	ldr	r3, [r3]
	.loc 1 91 26
	ldr	r2, [r2]
	.loc 1 91 13
	str	r2, [r3]
	.loc 1 93 26
	ldr	r3, .L8
	ldr	r2, [r3]
	.loc 1 93 2
	ldr	r3, .L8
	ldr	r3, [r3]
	.loc 1 93 26
	ldr	r2, [r2]
	.loc 1 93 13
	str	r2, [r3]
	.loc 1 95 28
	ldr	r3, .L8+4
	ldr	r2, [r3]
	.loc 1 95 2
	ldr	r3, .L8+4
	ldr	r3, [r3]
	.loc 1 95 28
	ldr	r2, [r2]
	.loc 1 95 14
	str	r2, [r3]
	.loc 1 97 14
	ldr	r3, .L8+8
	ldr	r3, [r3]
	ldr	r2, [r3]
	.loc 1 97 2
	ldr	r3, .L8+8
	ldr	r3, [r3]
	.loc 1 97 24
	bic	r2, r2, #1
	.loc 1 97 12
	str	r2, [r3]
	.loc 1 99 15
	ldr	r3, .L8+12
	ldr	r3, [r3]
	ldr	r2, [r3]
	.loc 1 99 2
	ldr	r3, .L8+12
	ldr	r3, [r3]
	.loc 1 99 26
	orr	r2, r2, #1
	.loc 1 99 13
	str	r2, [r3]
	.loc 1 101 3
	ldr	r3, .L8+16
	ldr	r3, [r3]
	.loc 1 101 14
	movs	r2, #100
	str	r2, [r3]
	.loc 1 103 2
	ldr	r3, .L8+20
	ldr	r3, [r3]
	.loc 1 103 13
	mov	r2, #1000
	str	r2, [r3]
	.loc 1 105 2
	ldr	r3, .L8+24
	ldr	r3, [r3]
	.loc 1 105 13
	movw	r2, #475
	str	r2, [r3]
	.loc 1 108 1
	nop
	mov	sp, r7
	.cfi_def_cfa_register 13
	@ sp needed
	ldr	r7, [sp], #4
	.cfi_restore 7
	.cfi_def_cfa_offset 0
	bx	lr
.L9:
	.align	2
.L8:
	.word	TIM10_CR1
	.word	TIM10_DIER
	.word	TIM10_SR
	.word	TIM10_EGR
	.word	TIM10_CNT
	.word	TIM10_PSC
	.word	TIM10_ARR
	.cfi_endproc
.LFE2:
	.size	TIMER10_CONFIG, .-TIMER10_CONFIG
	.align	1
	.global	TIMER11_CONFIG
	.syntax unified
	.thumb
	.thumb_func
	.type	TIMER11_CONFIG, %function
TIMER11_CONFIG:
.LFB3:
	.loc 1 110 1
	.cfi_startproc
	@ args = 0, pretend = 0, frame = 0
	@ frame_needed = 1, uses_anonymous_args = 0
	@ link register save eliminated.
	push	{r7}
	.cfi_def_cfa_offset 4
	.cfi_offset 7, -4
	add	r7, sp, #0
	.cfi_def_cfa_register 7
	.loc 1 111 16
	ldr	r3, .L11
	ldr	r3, [r3]
	ldr	r2, [r3]
	.loc 1 111 3
	ldr	r3, .L11
	ldr	r3, [r3]
	.loc 1 111 27
	orr	r2, r2, #128
	.loc 1 111 14
	str	r2, [r3]
	.loc 1 113 26
	ldr	r3, .L11
	ldr	r2, [r3]
	.loc 1 113 2
	ldr	r3, .L11
	ldr	r3, [r3]
	.loc 1 113 26
	ldr	r2, [r2]
	.loc 1 113 13
	str	r2, [r3]
	.loc 1 115 26
	ldr	r3, .L11
	ldr	r2, [r3]
	.loc 1 115 2
	ldr	r3, .L11
	ldr	r3, [r3]
	.loc 1 115 26
	ldr	r2, [r2]
	.loc 1 115 13
	str	r2, [r3]
	.loc 1 117 26
	ldr	r3, .L11
	ldr	r2, [r3]
	.loc 1 117 2
	ldr	r3, .L11
	ldr	r3, [r3]
	.loc 1 117 26
	ldr	r2, [r2]
	.loc 1 117 13
	str	r2, [r3]
	.loc 1 119 28
	ldr	r3, .L11+4
	ldr	r2, [r3]
	.loc 1 119 2
	ldr	r3, .L11+4
	ldr	r3, [r3]
	.loc 1 119 28
	ldr	r2, [r2]
	.loc 1 119 14
	str	r2, [r3]
	.loc 1 121 14
	ldr	r3, .L11+8
	ldr	r3, [r3]
	ldr	r2, [r3]
	.loc 1 121 2
	ldr	r3, .L11+8
	ldr	r3, [r3]
	.loc 1 121 24
	bic	r2, r2, #1
	.loc 1 121 12
	str	r2, [r3]
	.loc 1 123 15
	ldr	r3, .L11+12
	ldr	r3, [r3]
	ldr	r2, [r3]
	.loc 1 123 2
	ldr	r3, .L11+12
	ldr	r3, [r3]
	.loc 1 123 26
	orr	r2, r2, #1
	.loc 1 123 13
	str	r2, [r3]
	.loc 1 125 2
	ldr	r3, .L11+16
	ldr	r3, [r3]
	.loc 1 125 13
	movs	r2, #100
	str	r2, [r3]
	.loc 1 127 2
	ldr	r3, .L11+20
	ldr	r3, [r3]
	.loc 1 127 13
	mov	r2, #1000
	str	r2, [r3]
	.loc 1 129 2
	ldr	r3, .L11+24
	ldr	r3, [r3]
	.loc 1 129 13
	movs	r2, #25
	str	r2, [r3]
	.loc 1 131 15
	ldr	r3, .L11
	ldr	r3, [r3]
	ldr	r2, [r3]
	.loc 1 131 2
	ldr	r3, .L11
	ldr	r3, [r3]
	.loc 1 131 26
	orr	r2, r2, #1
	.loc 1 131 13
	str	r2, [r3]
	.loc 1 133 1
	nop
	mov	sp, r7
	.cfi_def_cfa_register 13
	@ sp needed
	ldr	r7, [sp], #4
	.cfi_restore 7
	.cfi_def_cfa_offset 0
	bx	lr
.L12:
	.align	2
.L11:
	.word	TIM11_CR1
	.word	TIM11_DIER
	.word	TIM11_SR
	.word	TIM11_EGR
	.word	TIM11_CNT
	.word	TIM11_PSC
	.word	TIM11_ARR
	.cfi_endproc
.LFE3:
	.size	TIMER11_CONFIG, .-TIMER11_CONFIG
	.align	1
	.global	GPIO_CONFIG
	.syntax unified
	.thumb
	.thumb_func
	.type	GPIO_CONFIG, %function
GPIO_CONFIG:
.LFB4:
	.loc 1 135 1
	.cfi_startproc
	@ args = 0, pretend = 0, frame = 0
	@ frame_needed = 1, uses_anonymous_args = 0
	@ link register save eliminated.
	push	{r7}
	.cfi_def_cfa_offset 4
	.cfi_offset 7, -4
	add	r7, sp, #0
	.cfi_def_cfa_register 7
	.loc 1 136 8
	ldr	r3, .L14
	ldr	r3, [r3]
	.loc 1 136 21
	mov	r2, #67108864
	str	r2, [r3]
	.loc 1 137 8
	ldr	r3, .L14+4
	ldr	r3, [r3]
	.loc 1 137 22
	mov	r2, #8192
	str	r2, [r3]
	.loc 1 138 8
	ldr	r3, .L14+8
	ldr	r3, [r3]
	.loc 1 138 19
	mov	r2, #8192
	str	r2, [r3]
	.loc 1 139 1
	nop
	mov	sp, r7
	.cfi_def_cfa_register 13
	@ sp needed
	ldr	r7, [sp], #4
	.cfi_restore 7
	.cfi_def_cfa_offset 0
	bx	lr
.L15:
	.align	2
.L14:
	.word	GPIOC_MODER
	.word	GPIOC_OTYPER
	.word	GPIOC_ODR
	.cfi_endproc
.LFE4:
	.size	GPIO_CONFIG, .-GPIO_CONFIG
	.align	1
	.global	TIMER10_LED
	.syntax unified
	.thumb
	.thumb_func
	.type	TIMER10_LED, %function
TIMER10_LED:
.LFB5:
	.loc 1 141 1
	.cfi_startproc
	@ args = 0, pretend = 0, frame = 0
	@ frame_needed = 1, uses_anonymous_args = 0
	@ link register save eliminated.
	push	{r7}
	.cfi_def_cfa_offset 4
	.cfi_offset 7, -4
	add	r7, sp, #0
	.cfi_def_cfa_register 7
	.loc 1 143 15
	ldr	r3, .L18
	ldr	r3, [r3]
	ldr	r2, [r3]
	.loc 1 143 2
	ldr	r3, .L18
	ldr	r3, [r3]
	.loc 1 143 26
	bic	r2, r2, #8192
	.loc 1 143 13
	str	r2, [r3]
	.loc 1 145 15
	ldr	r3, .L18+4
	ldr	r3, [r3]
	ldr	r2, [r3]
	.loc 1 145 2
	ldr	r3, .L18+4
	ldr	r3, [r3]
	.loc 1 145 26
	orr	r2, r2, #1
	.loc 1 145 13
	str	r2, [r3]
	.loc 1 147 14
	nop
.L17:
	.loc 1 147 17 discriminator 1
	ldr	r3, .L18+8
	ldr	r3, [r3]
	ldr	r3, [r3]
	.loc 1 147 27 discriminator 1
	and	r3, r3, #1
	.loc 1 147 14 discriminator 1
	cmp	r3, #0
	beq	.L17
	.loc 1 148 21
	ldr	r3, .L18+8
	ldr	r3, [r3]
	ldr	r2, [r3]
	.loc 1 148 9
	ldr	r3, .L18+8
	ldr	r3, [r3]
	.loc 1 148 31
	bic	r2, r2, #1
	.loc 1 148 19
	str	r2, [r3]
	.loc 1 150 15
	ldr	r3, .L18+4
	ldr	r3, [r3]
	ldr	r2, [r3]
	.loc 1 150 2
	ldr	r3, .L18+4
	ldr	r3, [r3]
	.loc 1 150 26
	bic	r2, r2, #1
	.loc 1 150 13
	str	r2, [r3]
	.loc 1 152 1
	nop
	mov	sp, r7
	.cfi_def_cfa_register 13
	@ sp needed
	ldr	r7, [sp], #4
	.cfi_restore 7
	.cfi_def_cfa_offset 0
	bx	lr
.L19:
	.align	2
.L18:
	.word	GPIOC_ODR
	.word	TIM10_CR1
	.word	TIM10_SR
	.cfi_endproc
.LFE5:
	.size	TIMER10_LED, .-TIMER10_LED
	.align	1
	.global	TIMER11_LED
	.syntax unified
	.thumb
	.thumb_func
	.type	TIMER11_LED, %function
TIMER11_LED:
.LFB6:
	.loc 1 154 1
	.cfi_startproc
	@ args = 0, pretend = 0, frame = 0
	@ frame_needed = 1, uses_anonymous_args = 0
	@ link register save eliminated.
	push	{r7}
	.cfi_def_cfa_offset 4
	.cfi_offset 7, -4
	add	r7, sp, #0
	.cfi_def_cfa_register 7
	.loc 1 156 20
	ldr	r3, .L22
	ldr	r3, [r3]
	ldr	r2, [r3]
	.loc 1 156 7
	ldr	r3, .L22
	ldr	r3, [r3]
	.loc 1 156 31
	orr	r2, r2, #8192
	.loc 1 156 18
	str	r2, [r3]
	.loc 1 159 19
	ldr	r3, .L22+4
	ldr	r3, [r3]
	ldr	r2, [r3]
	.loc 1 159 6
	ldr	r3, .L22+4
	ldr	r3, [r3]
	.loc 1 159 30
	orr	r2, r2, #1
	.loc 1 159 17
	str	r2, [r3]
	.loc 1 161 12
	nop
.L21:
	.loc 1 161 15 discriminator 1
	ldr	r3, .L22+8
	ldr	r3, [r3]
	ldr	r3, [r3]
	.loc 1 161 25 discriminator 1
	and	r3, r3, #1
	.loc 1 161 12 discriminator 1
	cmp	r3, #0
	beq	.L21
	.loc 1 162 19
	ldr	r3, .L22+8
	ldr	r3, [r3]
	ldr	r2, [r3]
	.loc 1 162 7
	ldr	r3, .L22+8
	ldr	r3, [r3]
	.loc 1 162 29
	bic	r2, r2, #1
	.loc 1 162 17
	str	r2, [r3]
	.loc 1 165 15
	ldr	r3, .L22+4
	ldr	r3, [r3]
	ldr	r2, [r3]
	.loc 1 165 2
	ldr	r3, .L22+4
	ldr	r3, [r3]
	.loc 1 165 26
	bic	r2, r2, #1
	.loc 1 165 13
	str	r2, [r3]
	.loc 1 167 1
	nop
	mov	sp, r7
	.cfi_def_cfa_register 13
	@ sp needed
	ldr	r7, [sp], #4
	.cfi_restore 7
	.cfi_def_cfa_offset 0
	bx	lr
.L23:
	.align	2
.L22:
	.word	GPIOC_ODR
	.word	TIM11_CR1
	.word	TIM11_SR
	.cfi_endproc
.LFE6:
	.size	TIMER11_LED, .-TIMER11_LED
.Letext0: