	.cpu cortex-m4
	.arch armv7e-m
	.fpu fpv4-sp-d16
	.eabi_attribute 27, 1
	.eabi_attribute 28, 1
	.eabi_attribute 20, 1
	.eabi_attribute 21, 1
	.eabi_attribute 23, 3
	.eabi_attribute 24, 1
	.eabi_attribute 25, 1
	.eabi_attribute 26, 1
	.eabi_attribute 30, 6
	.eabi_attribute 34, 1
	.eabi_attribute 18, 4
	.file	"main.c"
	.text
.Ltext0:
	.cfi_sections	.debug_frame
	.global	NVIC_ISER
	.data
	.align	2
	.type	NVIC_ISER, %object
	.size	NVIC_ISER, 4
NVIC_ISER:
	.word	-536813312
	.global	NVIC_ICER
	.align	2
	.type	NVIC_ICER, %object
	.size	NVIC_ICER, 4
NVIC_ICER:
	.word	-536813184
	.global	NVIC_ISPR
	.align	2
	.type	NVIC_ISPR, %object
	.size	NVIC_ISPR, 4
NVIC_ISPR:
	.word	-536813056
	.global	NVIC_ICPR
	.align	2
	.type	NVIC_ICPR, %object
	.size	NVIC_ICPR, 4
NVIC_ICPR:
	.word	-536812928
	.global	NVIC_IABR
	.align	2
	.type	NVIC_IABR, %object
	.size	NVIC_IABR, 4
NVIC_IABR:
	.word	-536812800
	.global	NVIC_IPR
	.align	2
	.type	NVIC_IPR, %object
	.size	NVIC_IPR, 4
NVIC_IPR:
	.word	-536812544
	.global	USART2
	.align	2
	.type	USART2, %object
	.size	USART2, 4
USART2:
	.word	1073759232
	.global	RCC
	.align	2
	.type	RCC, %object
	.size	RCC, 4
RCC:
	.word	1073887232
	.global	GPIOA
	.align	2
	.type	GPIOA, %object
	.size	GPIOA, 4
GPIOA:
	.word	1073872896
	.global	GPIOB
	.align	2
	.type	GPIOB, %object
	.size	GPIOB, 4
GPIOB:
	.word	1073873920
	.global	I2C1
	.align	2
	.type	I2C1, %object
	.size	I2C1, 4
I2C1:
	.word	1073763328
	.global	DMA2
	.align	2
	.type	DMA2, %object
	.size	DMA2, 4
DMA2:
	.word	1073898496
	.global	var
	.bss
	.type	var, %object
	.size	var, 1
var:
	.space	1
	.global	buffer
	.align	2
	.type	buffer, %object
	.size	buffer, 100
buffer:
	.space	100
	.section	.rodata
	.align	2
.LC0:
	.ascii	"MPU6050 connected....\015\012\000"
	.align	2
.LC1:
	.ascii	"MPU6050 not connected....\015\012\000"
	.text
	.align	1
	.global	main
	.syntax unified
	.thumb
	.thumb_func
	.type	main, %function
main:
.LFB3:
	.file 1 "main.c"
	.loc 1 12 1
	.cfi_startproc
	@ args = 0, pretend = 0, frame = 8
	@ frame_needed = 1, uses_anonymous_args = 0
	push	{r7, lr}
	.cfi_def_cfa_offset 8
	.cfi_offset 7, -8
	.cfi_offset 14, -4
	sub	sp, sp, #8
	.cfi_def_cfa_offset 16
	add	r7, sp, #0
	.cfi_def_cfa_register 7
	.loc 1 16 6
	bl	RCC_CONFIG
	.loc 1 17 6
	bl	GPIO_CONFIG
	.loc 1 19 5
	bl	usart_init
	.loc 1 20 2
	bl	i2c1_init
	.loc 1 23 2
	movs	r3, #1
	ldr	r2, .L5
	movs	r1, #107
	movs	r0, #208
	bl	i2c1_write
	.loc 1 24 2
	bl	mpu_init
	.loc 1 25 5
	movs	r3, #1
	ldr	r2, .L5
	movs	r1, #117
	movs	r0, #208
	bl	i2c1_read
	.loc 1 27 8
	ldr	r3, .L5
	ldrb	r3, [r3]	@ zero_extendqisi2
	.loc 1 27 4
	cmp	r3, #104
	bne	.L2
	.loc 1 28 4
	ldr	r0, .L5+4
	bl	usart_print
	b	.L4
.L2:
	.loc 1 30 4
	ldr	r0, .L5+8
	bl	usart_print
.L4:
	.loc 1 34 20 discriminator 1
	bl	mpu_tmperature
	.loc 1 35 20 discriminator 1
	bl	mpu_calculate
	.loc 1 36 6 discriminator 1
	bl	delay
	.loc 1 34 20 discriminator 1
	b	.L4
.L6:
	.align	2
.L5:
	.word	var
	.word	.LC0
	.word	.LC1
	.cfi_endproc
.LFE3:
	.size	main, .-main
	.align	1
	.global	RCC_CONFIG
	.syntax unified
	.thumb
	.thumb_func
	.type	RCC_CONFIG, %function
RCC_CONFIG:
.LFB4:
	.loc 1 41 1
	.cfi_startproc
	@ args = 0, pretend = 0, frame = 0
	@ frame_needed = 1, uses_anonymous_args = 0
	@ link register save eliminated.
	push	{r7}
	.cfi_def_cfa_offset 4
	.cfi_offset 7, -4
	add	r7, sp, #0
	.cfi_def_cfa_register 7
	.loc 1 42 20
	ldr	r3, .L9
	ldr	r3, [r3]
	ldr	r2, [r3, #48]
	ldr	r3, .L9
	ldr	r3, [r3]
	orr	r2, r2, #4
	str	r2, [r3, #48]
	.loc 1 43 20
	ldr	r3, .L9
	ldr	r3, [r3]
	ldr	r2, [r3, #48]
	ldr	r3, .L9
	ldr	r3, [r3]
	orr	r2, r2, #2
	str	r2, [r3, #48]
	.loc 1 44 20
	ldr	r3, .L9
	ldr	r3, [r3]
	ldr	r2, [r3, #48]
	ldr	r3, .L9
	ldr	r3, [r3]
	orr	r2, r2, #1
	str	r2, [r3, #48]
	.loc 1 46 15
	ldr	r3, .L9
	ldr	r3, [r3]
	ldr	r2, [r3]
	ldr	r3, .L9
	ldr	r3, [r3]
	bic	r2, r2, #65536
	str	r2, [r3]
	.loc 1 47 15
	ldr	r3, .L9
	ldr	r3, [r3]
	ldr	r2, [r3]
	ldr	r3, .L9
	ldr	r3, [r3]
	orr	r2, r2, #65536
	str	r2, [r3]
	.loc 1 48 12
	nop
.L8:
	.loc 1 48 17 discriminator 1
	ldr	r3, .L9
	ldr	r3, [r3]
	ldr	r3, [r3]
	.loc 1 48 22 discriminator 1
	and	r3, r3, #131072
	.loc 1 48 12 discriminator 1
	cmp	r3, #0
	beq	.L8
	.loc 1 50 17
	ldr	r3, .L9
	ldr	r3, [r3]
	ldr	r2, [r3, #8]
	ldr	r3, .L9
	ldr	r3, [r3]
	bic	r2, r2, #3
	str	r2, [r3, #8]
	.loc 1 51 17
	ldr	r3, .L9
	ldr	r3, [r3]
	ldr	r2, [r3, #8]
	ldr	r3, .L9
	ldr	r3, [r3]
	orr	r2, r2, #1
	str	r2, [r3, #8]
	.loc 1 52 12
	nop
	.loc 1 54 20
	ldr	r3, .L9
	ldr	r3, [r3]
	ldr	r2, [r3, #68]
	ldr	r3, .L9
	ldr	r3, [r3]
	orr	r2, r2, #131072
	str	r2, [r3, #68]
	.loc 1 56 20
	ldr	r3, .L9
	ldr	r3, [r3]
	ldr	r2, [r3, #64]
	ldr	r3, .L9
	ldr	r3, [r3]
	orr	r2, r2, #131072
	str	r2, [r3, #64]
	.loc 1 58 20
	ldr	r3, .L9
	ldr	r3, [r3]
	ldr	r2, [r3, #68]
	ldr	r3, .L9
	ldr	r3, [r3]
	orr	r2, r2, #16
	str	r2, [r3, #68]
	.loc 1 60 20
	ldr	r3, .L9
	ldr	r3, [r3]
	ldr	r2, [r3, #48]
	ldr	r3, .L9
	ldr	r3, [r3]
	orr	r2, r2, #2097152
	str	r2, [r3, #48]
	.loc 1 62 20
	ldr	r3, .L9
	ldr	r3, [r3]
	ldr	r2, [r3, #48]
	ldr	r3, .L9
	ldr	r3, [r3]
	orr	r2, r2, #4194304
	str	r2, [r3, #48]
	.loc 1 64 20
	ldr	r3, .L9
	ldr	r3, [r3]
	ldr	r2, [r3, #64]
	ldr	r3, .L9
	ldr	r3, [r3]
	orr	r2, r2, #2097152
	str	r2, [r3, #64]
	.loc 1 66 1
	nop
	mov	sp, r7
	.cfi_def_cfa_register 13
	@ sp needed
	ldr	r7, [sp], #4
	.cfi_restore 7
	.cfi_def_cfa_offset 0
	bx	lr
.L10:
	.align	2
.L9:
	.word	RCC
	.cfi_endproc
.LFE4:
	.size	RCC_CONFIG, .-RCC_CONFIG
	.align	1
	.global	GPIO_CONFIG
	.syntax unified
	.thumb
	.thumb_func
	.type	GPIO_CONFIG, %function
GPIO_CONFIG:
.LFB5:
	.loc 1 68 1
	.cfi_startproc
	@ args = 0, pretend = 0, frame = 0
	@ frame_needed = 1, uses_anonymous_args = 0
	@ link register save eliminated.
	push	{r7}
	.cfi_def_cfa_offset 4
	.cfi_offset 7, -4
	add	r7, sp, #0
	.cfi_def_cfa_register 7
	.loc 1 69 21
	ldr	r3, .L12
	ldr	r3, [r3]
	ldr	r2, [r3]
	ldr	r3, .L12
	ldr	r3, [r3]
	bic	r2, r2, #240
	str	r2, [r3]
	.loc 1 70 21
	ldr	r3, .L12
	ldr	r3, [r3]
	ldr	r2, [r3]
	ldr	r3, .L12
	ldr	r3, [r3]
	orr	r2, r2, #160
	str	r2, [r3]
	.loc 1 72 22
	ldr	r3, .L12
	ldr	r3, [r3]
	ldr	r2, [r3, #4]
	ldr	r3, .L12
	ldr	r3, [r3]
	bic	r2, r2, #12
	str	r2, [r3, #4]
	.loc 1 74 21
	ldr	r3, .L12
	ldr	r3, [r3]
	ldr	r2, [r3, #12]
	ldr	r3, .L12
	ldr	r3, [r3]
	bic	r2, r2, #240
	str	r2, [r3, #12]
	.loc 1 76 20
	ldr	r3, .L12
	ldr	r3, [r3]
	ldr	r2, [r3, #32]
	ldr	r3, .L12
	ldr	r3, [r3]
	bic	r2, r2, #3840
	str	r2, [r3, #32]
	.loc 1 77 20
	ldr	r3, .L12
	ldr	r3, [r3]
	ldr	r2, [r3, #32]
	ldr	r3, .L12
	ldr	r3, [r3]
	orr	r2, r2, #1792
	str	r2, [r3, #32]
	.loc 1 79 20
	ldr	r3, .L12
	ldr	r3, [r3]
	ldr	r2, [r3, #32]
	ldr	r3, .L12
	ldr	r3, [r3]
	bic	r2, r2, #61440
	str	r2, [r3, #32]
	.loc 1 80 20
	ldr	r3, .L12
	ldr	r3, [r3]
	ldr	r2, [r3, #32]
	ldr	r3, .L12
	ldr	r3, [r3]
	orr	r2, r2, #28672
	str	r2, [r3, #32]
	.loc 1 83 21
	ldr	r3, .L12+4
	ldr	r3, [r3]
	ldr	r2, [r3]
	ldr	r3, .L12+4
	ldr	r3, [r3]
	bic	r2, r2, #61440
	str	r2, [r3]
	.loc 1 84 21
	ldr	r3, .L12+4
	ldr	r3, [r3]
	ldr	r2, [r3]
	ldr	r3, .L12+4
	ldr	r3, [r3]
	orr	r2, r2, #40960
	str	r2, [r3]
	.loc 1 86 22
	ldr	r3, .L12+4
	ldr	r3, [r3]
	ldr	r2, [r3, #4]
	ldr	r3, .L12+4
	ldr	r3, [r3]
	orr	r2, r2, #192
	str	r2, [r3, #4]
	.loc 1 88 21
	ldr	r3, .L12+4
	ldr	r3, [r3]
	ldr	r2, [r3, #12]
	ldr	r3, .L12+4
	ldr	r3, [r3]
	bic	r2, r2, #61440
	str	r2, [r3, #12]
	.loc 1 90 20
	ldr	r3, .L12+4
	ldr	r3, [r3]
	ldr	r2, [r3, #32]
	ldr	r3, .L12+4
	ldr	r3, [r3]
	bic	r2, r2, #251658240
	str	r2, [r3, #32]
	.loc 1 91 20
	ldr	r3, .L12+4
	ldr	r3, [r3]
	ldr	r2, [r3, #32]
	ldr	r3, .L12+4
	ldr	r3, [r3]
	orr	r2, r2, #67108864
	str	r2, [r3, #32]
	.loc 1 93 20
	ldr	r3, .L12+4
	ldr	r3, [r3]
	ldr	r2, [r3, #32]
	ldr	r3, .L12+4
	ldr	r3, [r3]
	bic	r2, r2, #-268435456
	str	r2, [r3, #32]
	.loc 1 94 20
	ldr	r3, .L12+4
	ldr	r3, [r3]
	ldr	r2, [r3, #32]
	ldr	r3, .L12+4
	ldr	r3, [r3]
	orr	r2, r2, #1073741824
	str	r2, [r3, #32]
	.loc 1 95 1
	nop
	mov	sp, r7
	.cfi_def_cfa_register 13
	@ sp needed
	ldr	r7, [sp], #4
	.cfi_restore 7
	.cfi_def_cfa_offset 0
	bx	lr
.L13:
	.align	2
.L12:
	.word	GPIOA
	.word	GPIOB
	.cfi_endproc
.LFE5:
	.size	GPIO_CONFIG, .-GPIO_CONFIG
	.align	1
	.global	usart_init
	.syntax unified
	.thumb
	.thumb_func
	.type	usart_init, %function
usart_init:
.LFB6:
	.loc 1 98 1
	.cfi_startproc
	@ args = 0, pretend = 0, frame = 0
	@ frame_needed = 1, uses_anonymous_args = 0
	@ link register save eliminated.
	push	{r7}
	.cfi_def_cfa_offset 4
	.cfi_offset 7, -4
	add	r7, sp, #0
	.cfi_def_cfa_register 7
	.loc 1 100 16
	ldr	r3, .L15
	ldr	r3, [r3]
	ldr	r2, [r3, #12]
	ldr	r3, .L15
	ldr	r3, [r3]
	orr	r2, r2, #8192
	str	r2, [r3, #12]
	.loc 1 102 19
	ldr	r3, .L15
	ldr	r3, [r3]
	ldr	r3, [r3, #8]
	ldr	r2, .L15
	ldr	r2, [r2]
	bic	r3, r3, #65280
	bic	r3, r3, #240
	str	r3, [r2, #8]
	.loc 1 104 16
	ldr	r3, .L15
	ldr	r3, [r3]
	ldr	r3, [r3, #8]
	ldr	r2, .L15
	ldr	r2, [r2]
	orr	r3, r3, #5184
	orr	r3, r3, #16
	str	r3, [r2, #8]
	.loc 1 106 16
	ldr	r3, .L15
	ldr	r3, [r3]
	ldr	r2, [r3, #8]
	ldr	r3, .L15
	ldr	r3, [r3]
	bic	r2, r2, #15
	str	r2, [r3, #8]
	.loc 1 108 16
	ldr	r3, .L15
	ldr	r3, [r3]
	ldr	r2, [r3, #8]
	ldr	r3, .L15
	ldr	r3, [r3]
	orr	r2, r2, #4
	str	r2, [r3, #8]
	.loc 1 110 21
	ldr	r3, .L15
	ldr	r3, [r3]
	ldr	r2, [r3, #12]
	ldr	r3, .L15
	ldr	r3, [r3]
	orr	r2, r2, #32768
	str	r2, [r3, #12]
	.loc 1 112 21
	ldr	r3, .L15
	ldr	r3, [r3]
	ldr	r2, [r3, #12]
	ldr	r3, .L15
	ldr	r3, [r3]
	bic	r2, r2, #4096
	str	r2, [r3, #12]
	.loc 1 114 21
	ldr	r3, .L15
	ldr	r3, [r3]
	ldr	r2, [r3, #12]
	ldr	r3, .L15
	ldr	r3, [r3]
	orr	r2, r2, #8
	str	r2, [r3, #12]
	.loc 1 116 21
	ldr	r3, .L15
	ldr	r3, [r3]
	ldr	r2, [r3, #20]
	ldr	r3, .L15
	ldr	r3, [r3]
	orr	r2, r2, #128
	str	r2, [r3, #20]
	.loc 1 118 21
	ldr	r3, .L15
	ldr	r3, [r3]
	ldr	r2, [r3, #20]
	ldr	r3, .L15
	ldr	r3, [r3]
	bic	r2, r2, #8
	str	r2, [r3, #20]
	.loc 1 120 20
	ldr	r3, .L15
	ldr	r3, [r3]
	ldr	r2, [r3]
	ldr	r3, .L15
	ldr	r3, [r3]
	bic	r2, r2, #64
	str	r2, [r3]
	.loc 1 121 1
	nop
	mov	sp, r7
	.cfi_def_cfa_register 13
	@ sp needed
	ldr	r7, [sp], #4
	.cfi_restore 7
	.cfi_def_cfa_offset 0
	bx	lr
.L16:
	.align	2
.L15:
	.word	USART2
	.cfi_endproc
.LFE6:
	.size	usart_init, .-usart_init
	.align	1
	.global	i2c1_init
	.syntax unified
	.thumb
	.thumb_func
	.type	i2c1_init, %function
i2c1_init:
.LFB7:
	.loc 1 124 2
	.cfi_startproc
	@ args = 0, pretend = 0, frame = 0
	@ frame_needed = 1, uses_anonymous_args = 0
	@ link register save eliminated.
	push	{r7}
	.cfi_def_cfa_offset 4
	.cfi_offset 7, -4
	add	r7, sp, #0
	.cfi_def_cfa_register 7
	.loc 1 126 19
	ldr	r3, .L18
	ldr	r3, [r3]
	ldr	r2, [r3]
	ldr	r3, .L18
	ldr	r3, [r3]
	bic	r2, r2, #32768
	str	r2, [r3]
	.loc 1 128 19
	ldr	r3, .L18
	ldr	r3, [r3]
	ldr	r2, [r3]
	ldr	r3, .L18
	ldr	r3, [r3]
	bic	r2, r2, #8192
	str	r2, [r3]
	.loc 1 130 16
	ldr	r3, .L18
	ldr	r3, [r3]
	ldr	r2, [r3]
	ldr	r3, .L18
	ldr	r3, [r3]
	bic	r2, r2, #4096
	str	r2, [r3]
	.loc 1 132 16
	ldr	r3, .L18
	ldr	r3, [r3]
	ldr	r2, [r3]
	ldr	r3, .L18
	ldr	r3, [r3]
	orr	r2, r2, #2048
	str	r2, [r3]
	.loc 1 134 19
	ldr	r3, .L18
	ldr	r3, [r3]
	ldr	r2, [r3]
	ldr	r3, .L18
	ldr	r3, [r3]
	bic	r2, r2, #128
	str	r2, [r3]
	.loc 1 136 19
	ldr	r3, .L18
	ldr	r3, [r3]
	ldr	r2, [r3]
	ldr	r3, .L18
	ldr	r3, [r3]
	bic	r2, r2, #64
	str	r2, [r3]
	.loc 1 138 19
	ldr	r3, .L18
	ldr	r3, [r3]
	ldr	r2, [r3]
	ldr	r3, .L18
	ldr	r3, [r3]
	bic	r2, r2, #32
	str	r2, [r3]
	.loc 1 140 19
	ldr	r3, .L18
	ldr	r3, [r3]
	ldr	r2, [r3]
	ldr	r3, .L18
	ldr	r3, [r3]
	bic	r2, r2, #16
	str	r2, [r3]
	.loc 1 142 19
	ldr	r3, .L18
	ldr	r3, [r3]
	ldr	r2, [r3]
	ldr	r3, .L18
	ldr	r3, [r3]
	bic	r2, r2, #8
	str	r2, [r3]
	.loc 1 144 19
	ldr	r3, .L18
	ldr	r3, [r3]
	ldr	r2, [r3]
	ldr	r3, .L18
	ldr	r3, [r3]
	bic	r2, r2, #2
	str	r2, [r3]
	.loc 1 146 19
	ldr	r3, .L18
	ldr	r3, [r3]
	ldr	r2, [r3, #4]
	ldr	r3, .L18
	ldr	r3, [r3]
	orr	r2, r2, #2048
	str	r2, [r3, #4]
	.loc 1 148 19
	ldr	r3, .L18
	ldr	r3, [r3]
	ldr	r2, [r3, #4]
	ldr	r3, .L18
	ldr	r3, [r3]
	bic	r2, r2, #63
	str	r2, [r3, #4]
	.loc 1 149 19
	ldr	r3, .L18
	ldr	r3, [r3]
	ldr	r2, [r3, #4]
	ldr	r3, .L18
	ldr	r3, [r3]
	orr	r2, r2, #25
	str	r2, [r3, #4]
	.loc 1 151 13
	ldr	r3, .L18
	ldr	r3, [r3]
	.loc 1 151 19
	movs	r2, #125
	str	r2, [r3, #28]
	.loc 1 153 13
	ldr	r3, .L18
	ldr	r3, [r3]
	.loc 1 153 21
	movs	r2, #24
	str	r2, [r3, #32]
	.loc 1 155 19
	ldr	r3, .L18
	ldr	r3, [r3]
	ldr	r2, [r3]
	ldr	r3, .L18
	ldr	r3, [r3]
	orr	r2, r2, #1
	str	r2, [r3]
	.loc 1 156 3
	nop
	mov	sp, r7
	.cfi_def_cfa_register 13
	@ sp needed
	ldr	r7, [sp], #4
	.cfi_restore 7
	.cfi_def_cfa_offset 0
	bx	lr
.L19:
	.align	2
.L18:
	.word	I2C1
	.cfi_endproc
.LFE7:
	.size	i2c1_init, .-i2c1_init
	.align	1
	.global	i2c1_write
	.syntax unified
	.thumb
	.thumb_func
	.type	i2c1_write, %function
i2c1_write:
.LFB8:
	.loc 1 159 1
	.cfi_startproc
	@ args = 0, pretend = 0, frame = 16
	@ frame_needed = 1, uses_anonymous_args = 0
	@ link register save eliminated.
	push	{r7}
	.cfi_def_cfa_offset 4
	.cfi_offset 7, -4
	sub	sp, sp, #20
	.cfi_def_cfa_offset 24
	add	r7, sp, #0
	.cfi_def_cfa_register 7
	str	r2, [r7]
	mov	r2, r3
	mov	r3, r0
	strb	r3, [r7, #7]
	mov	r3, r1
	strb	r3, [r7, #6]
	mov	r3, r2
	strb	r3, [r7, #5]
	.loc 1 162 16
	ldr	r3, .L27
	ldr	r3, [r3]
	ldr	r2, [r3]
	ldr	r3, .L27
	ldr	r3, [r3]
	orr	r2, r2, #256
	str	r2, [r3]
	.loc 1 164 11
	nop
.L21:
	.loc 1 164 18 discriminator 1
	ldr	r3, .L27
	ldr	r3, [r3]
	ldr	r3, [r3, #20]
	.loc 1 164 24 discriminator 1
	and	r3, r3, #1
	.loc 1 164 11 discriminator 1
	cmp	r3, #0
	beq	.L21
	.loc 1 165 16
	ldr	r3, .L27
	ldr	r3, [r3]
	ldr	r3, [r3, #24]
	.loc 1 165 10
	str	r3, [r7, #12]
	.loc 1 167 10
	ldr	r3, .L27
	ldr	r3, [r3]
	.loc 1 167 15
	ldrb	r2, [r7, #7]	@ zero_extendqisi2
	str	r2, [r3, #16]
	.loc 1 169 11
	nop
.L22:
	.loc 1 169 18 discriminator 1
	ldr	r3, .L27
	ldr	r3, [r3]
	ldr	r3, [r3, #20]
	.loc 1 169 24 discriminator 1
	and	r3, r3, #130
	.loc 1 169 11 discriminator 1
	cmp	r3, #0
	beq	.L22
	.loc 1 170 16
	ldr	r3, .L27
	ldr	r3, [r3]
	ldr	r3, [r3, #24]
	.loc 1 170 10
	str	r3, [r7, #12]
	.loc 1 172 10
	ldr	r3, .L27
	ldr	r3, [r3]
	.loc 1 172 15
	ldrb	r2, [r7, #6]	@ zero_extendqisi2
	str	r2, [r3, #16]
	.loc 1 174 11
	nop
.L23:
	.loc 1 174 18 discriminator 1
	ldr	r3, .L27
	ldr	r3, [r3]
	ldr	r3, [r3, #20]
	.loc 1 174 24 discriminator 1
	and	r3, r3, #128
	.loc 1 174 11 discriminator 1
	cmp	r3, #0
	beq	.L23
	.loc 1 175 16
	ldr	r3, .L27
	ldr	r3, [r3]
	ldr	r3, [r3, #24]
	.loc 1 175 10
	str	r3, [r7, #12]
	.loc 1 177 8
	movs	r3, #0
	str	r3, [r7, #8]
	.loc 1 177 3
	b	.L24
.L26:
	.loc 1 180 19
	ldr	r3, [r7, #8]
	ldr	r2, [r7]
	add	r3, r3, r2
	ldrb	r2, [r3]	@ zero_extendqisi2
	.loc 1 180 8
	ldr	r3, .L27
	ldr	r3, [r3]
	.loc 1 180 13
	str	r2, [r3, #16]
	.loc 1 182 18
	nop
.L25:
	.loc 1 182 25 discriminator 1
	ldr	r3, .L27
	ldr	r3, [r3]
	ldr	r3, [r3, #20]
	.loc 1 182 31 discriminator 1
	and	r3, r3, #128
	.loc 1 182 18 discriminator 1
	cmp	r3, #0
	beq	.L25
	.loc 1 183 14 discriminator 2
	ldr	r3, .L27
	ldr	r3, [r3]
	ldr	r3, [r3, #24]
	.loc 1 183 8 discriminator 2
	str	r3, [r7, #12]
	.loc 1 177 24 discriminator 2
	ldr	r3, [r7, #8]
	adds	r3, r3, #1
	str	r3, [r7, #8]
.L24:
	.loc 1 177 13 discriminator 1
	ldrb	r2, [r7, #5]	@ zero_extendqisi2
	ldr	r3, [r7, #8]
	.loc 1 177 3 discriminator 1
	cmp	r2, r3
	bhi	.L26
	.loc 1 186 16
	ldr	r3, .L27
	ldr	r3, [r3]
	ldr	r2, [r3]
	ldr	r3, .L27
	ldr	r3, [r3]
	orr	r2, r2, #512
	str	r2, [r3]
	.loc 1 188 1
	nop
	adds	r7, r7, #20
	.cfi_def_cfa_offset 4
	mov	sp, r7
	.cfi_def_cfa_register 13
	@ sp needed
	ldr	r7, [sp], #4
	.cfi_restore 7
	.cfi_def_cfa_offset 0
	bx	lr
.L28:
	.align	2
.L27:
	.word	I2C1
	.cfi_endproc
.LFE8:
	.size	i2c1_write, .-i2c1_write
	.align	1
	.global	i2c1_read
	.syntax unified
	.thumb
	.thumb_func
	.type	i2c1_read, %function
i2c1_read:
.LFB9:
	.loc 1 191 1
	.cfi_startproc
	@ args = 0, pretend = 0, frame = 16
	@ frame_needed = 1, uses_anonymous_args = 0
	@ link register save eliminated.
	push	{r7}
	.cfi_def_cfa_offset 4
	.cfi_offset 7, -4
	sub	sp, sp, #20
	.cfi_def_cfa_offset 24
	add	r7, sp, #0
	.cfi_def_cfa_register 7
	str	r2, [r7]
	mov	r2, r3
	mov	r3, r0
	strb	r3, [r7, #7]
	mov	r3, r1
	strb	r3, [r7, #6]
	mov	r3, r2
	strb	r3, [r7, #5]
	.loc 1 194 17
	ldr	r3, .L41
	ldr	r3, [r3]
	ldr	r2, [r3]
	ldr	r3, .L41
	ldr	r3, [r3]
	orr	r2, r2, #256
	str	r2, [r3]
	.loc 1 196 12
	nop
.L30:
	.loc 1 196 19 discriminator 1
	ldr	r3, .L41
	ldr	r3, [r3]
	ldr	r3, [r3, #20]
	.loc 1 196 25 discriminator 1
	and	r3, r3, #1
	.loc 1 196 12 discriminator 1
	cmp	r3, #0
	beq	.L30
	.loc 1 197 17
	ldr	r3, .L41
	ldr	r3, [r3]
	ldr	r3, [r3, #24]
	.loc 1 197 11
	str	r3, [r7, #12]
	.loc 1 199 10
	ldr	r3, .L41
	ldr	r3, [r3]
	.loc 1 199 15
	ldrb	r2, [r7, #7]	@ zero_extendqisi2
	str	r2, [r3, #16]
	.loc 1 201 12
	nop
.L31:
	.loc 1 201 19 discriminator 1
	ldr	r3, .L41
	ldr	r3, [r3]
	ldr	r3, [r3, #20]
	.loc 1 201 25 discriminator 1
	and	r3, r3, #130
	.loc 1 201 12 discriminator 1
	cmp	r3, #0
	beq	.L31
	.loc 1 202 19
	ldr	r3, .L41
	ldr	r3, [r3]
	ldr	r3, [r3, #24]
	.loc 1 202 13
	str	r3, [r7, #12]
	.loc 1 204 13
	ldr	r3, .L41
	ldr	r3, [r3]
	.loc 1 204 18
	ldrb	r2, [r7, #6]	@ zero_extendqisi2
	str	r2, [r3, #16]
	.loc 1 206 14
	nop
.L32:
	.loc 1 206 21 discriminator 1
	ldr	r3, .L41
	ldr	r3, [r3]
	ldr	r3, [r3, #20]
	.loc 1 206 27 discriminator 1
	and	r3, r3, #128
	.loc 1 206 14 discriminator 1
	cmp	r3, #0
	beq	.L32
	.loc 1 207 19
	ldr	r3, .L41
	ldr	r3, [r3]
	ldr	r3, [r3, #24]
	.loc 1 207 13
	str	r3, [r7, #12]
	.loc 1 209 19
	ldr	r3, .L41
	ldr	r3, [r3]
	ldr	r2, [r3]
	ldr	r3, .L41
	ldr	r3, [r3]
	orr	r2, r2, #256
	str	r2, [r3]
	.loc 1 211 14
	nop
.L33:
	.loc 1 211 21 discriminator 1
	ldr	r3, .L41
	ldr	r3, [r3]
	ldr	r3, [r3, #20]
	.loc 1 211 27 discriminator 1
	and	r3, r3, #1
	.loc 1 211 14 discriminator 1
	cmp	r3, #0
	beq	.L33
	.loc 1 212 19
	ldr	r3, .L41
	ldr	r3, [r3]
	ldr	r3, [r3, #24]
	.loc 1 212 13
	str	r3, [r7, #12]
	.loc 1 215 29
	ldrb	r3, [r7, #7]
	orr	r3, r3, #1
	uxtb	r2, r3
	.loc 1 215 13
	ldr	r3, .L41
	ldr	r3, [r3]
	.loc 1 215 18
	str	r2, [r3, #16]
	.loc 1 217 11
	nop
.L34:
	.loc 1 217 18 discriminator 1
	ldr	r3, .L41
	ldr	r3, [r3]
	ldr	r3, [r3, #20]
	.loc 1 217 24 discriminator 1
	and	r3, r3, #130
	.loc 1 217 11 discriminator 1
	cmp	r3, #0
	beq	.L34
	.loc 1 218 19
	ldr	r3, .L41
	ldr	r3, [r3]
	ldr	r3, [r3, #24]
	.loc 1 218 13
	str	r3, [r7, #12]
	.loc 1 220 11
	movs	r3, #0
	str	r3, [r7, #8]
	.loc 1 220 6
	b	.L35
.L39:
	.loc 1 222 25
	ldrb	r3, [r7, #5]	@ zero_extendqisi2
	subs	r3, r3, #1
	mov	r2, r3
	.loc 1 222 16
	ldr	r3, [r7, #8]
	.loc 1 222 14
	cmp	r2, r3
	bne	.L36
	.loc 1 224 19
	ldr	r3, .L41
	ldr	r3, [r3]
	ldr	r2, [r3]
	ldr	r3, .L41
	ldr	r3, [r3]
	bic	r2, r2, #1024
	str	r2, [r3]
	b	.L40
.L36:
	.loc 1 226 30
	ldr	r3, .L41
	ldr	r3, [r3]
	ldr	r2, [r3]
	ldr	r3, .L41
	ldr	r3, [r3]
	orr	r2, r2, #1024
	str	r2, [r3]
.L40:
	.loc 1 228 17
	nop
.L38:
	.loc 1 228 24 discriminator 1
	ldr	r3, .L41
	ldr	r3, [r3]
	ldr	r3, [r3, #20]
	.loc 1 228 30 discriminator 1
	and	r3, r3, #64
	.loc 1 228 17 discriminator 1
	cmp	r3, #0
	beq	.L38
	.loc 1 229 16 discriminator 2
	ldr	r3, .L41
	ldr	r3, [r3]
	ldr	r3, [r3, #24]
	.loc 1 229 10 discriminator 2
	str	r3, [r7, #12]
	.loc 1 231 27 discriminator 2
	ldr	r3, .L41
	ldr	r3, [r3]
	ldr	r1, [r3, #16]
	.loc 1 231 17 discriminator 2
	ldr	r3, [r7, #8]
	ldr	r2, [r7]
	add	r3, r3, r2
	.loc 1 231 21 discriminator 2
	uxtb	r2, r1
	strb	r2, [r3]
	.loc 1 220 27 discriminator 2
	ldr	r3, [r7, #8]
	adds	r3, r3, #1
	str	r3, [r7, #8]
.L35:
	.loc 1 220 16 discriminator 1
	ldrb	r2, [r7, #5]	@ zero_extendqisi2
	ldr	r3, [r7, #8]
	.loc 1 220 6 discriminator 1
	cmp	r2, r3
	bhi	.L39
	.loc 1 235 17
	ldr	r3, .L41
	ldr	r3, [r3]
	ldr	r2, [r3]
	ldr	r3, .L41
	ldr	r3, [r3]
	orr	r2, r2, #512
	str	r2, [r3]
	.loc 1 236 1
	nop
	adds	r7, r7, #20
	.cfi_def_cfa_offset 4
	mov	sp, r7
	.cfi_def_cfa_register 13
	@ sp needed
	ldr	r7, [sp], #4
	.cfi_restore 7
	.cfi_def_cfa_offset 0
	bx	lr
.L42:
	.align	2
.L41:
	.word	I2C1
	.cfi_endproc
.LFE9:
	.size	i2c1_read, .-i2c1_read
	.section	.rodata
	.align	2
.LC2:
	.ascii	"Ax=%d.%u,Ay=%d.%u,Az=%d.%u\015\012\000"
	.text
	.align	1
	.global	mpu_calculate
	.syntax unified
	.thumb
	.thumb_func
	.type	mpu_calculate, %function
mpu_calculate:
.LFB10:
	.loc 1 239 1
	.cfi_startproc
	@ args = 0, pretend = 0, frame = 24
	@ frame_needed = 1, uses_anonymous_args = 0
	push	{r4, r5, r7, lr}
	.cfi_def_cfa_offset 16
	.cfi_offset 4, -16
	.cfi_offset 5, -12
	.cfi_offset 7, -8
	.cfi_offset 14, -4
	sub	sp, sp, #40
	.cfi_def_cfa_offset 56
	add	r7, sp, #16
	.cfi_def_cfa 7, 40
	.loc 1 248 5
	mov	r2, r7
	movs	r3, #6
	movs	r1, #59
	movs	r0, #208
	bl	i2c1_read
	.loc 1 250 28
	ldrb	r3, [r7]	@ zero_extendqisi2
	.loc 1 250 31
	lsls	r3, r3, #8
	.loc 1 250 12
	sxth	r2, r3
	.loc 1 250 40
	ldrb	r3, [r7, #1]	@ zero_extendqisi2
	sxth	r3, r3
	.loc 1 250 10
	orrs	r3, r3, r2
	strh	r3, [r7, #22]	@ movhi
	.loc 1 252 28
	ldrb	r3, [r7, #2]	@ zero_extendqisi2
	.loc 1 252 31
	lsls	r3, r3, #8
	.loc 1 252 12
	sxth	r2, r3
	.loc 1 252 40
	ldrb	r3, [r7, #3]	@ zero_extendqisi2
	sxth	r3, r3
	.loc 1 252 10
	orrs	r3, r3, r2
	strh	r3, [r7, #20]	@ movhi
	.loc 1 254 28
	ldrb	r3, [r7, #4]	@ zero_extendqisi2
	.loc 1 254 31
	lsls	r3, r3, #8
	.loc 1 254 12
	sxth	r2, r3
	.loc 1 254 40
	ldrb	r3, [r7, #5]	@ zero_extendqisi2
	sxth	r3, r3
	.loc 1 254 10
	orrs	r3, r3, r2
	strh	r3, [r7, #18]	@ movhi
	.loc 1 256 8
	ldrsh	r3, [r7, #22]
	cmp	r3, #0
	bge	.L44
	add	r3, r3, #16320
	adds	r3, r3, #63
.L44:
	asrs	r3, r3, #14
	strh	r3, [r7, #16]	@ movhi
	.loc 1 257 8
	ldrsh	r3, [r7, #20]
	cmp	r3, #0
	bge	.L45
	add	r3, r3, #16320
	adds	r3, r3, #63
.L45:
	asrs	r3, r3, #14
	strh	r3, [r7, #14]	@ movhi
	.loc 1 258 8
	ldrsh	r3, [r7, #18]
	cmp	r3, #0
	bge	.L46
	add	r3, r3, #16320
	adds	r3, r3, #63
.L46:
	asrs	r3, r3, #14
	strh	r3, [r7, #12]	@ movhi
	.loc 1 260 12
	ldrh	r3, [r7, #22]
	.loc 1 260 9
	ubfx	r3, r3, #0, #14
	uxth	r3, r3
	lsrs	r3, r3, #1
	ldr	r2, .L47
	umull	r2, r3, r2, r3
	lsrs	r3, r3, #9
	strh	r3, [r7, #10]	@ movhi
	.loc 1 261 12
	ldrh	r3, [r7, #20]
	.loc 1 261 9
	ubfx	r3, r3, #0, #14
	uxth	r3, r3
	lsrs	r3, r3, #1
	ldr	r2, .L47
	umull	r2, r3, r2, r3
	lsrs	r3, r3, #9
	strh	r3, [r7, #8]	@ movhi
	.loc 1 262 12
	ldrh	r3, [r7, #18]
	.loc 1 262 9
	ubfx	r3, r3, #0, #14
	uxth	r3, r3
	lsrs	r3, r3, #1
	ldr	r2, .L47
	umull	r2, r3, r2, r3
	lsrs	r3, r3, #9
	strh	r3, [r7, #6]	@ movhi
	.loc 1 264 2
	ldrsh	r4, [r7, #16]
	ldrh	r5, [r7, #10]
	ldrsh	r3, [r7, #14]
	ldrh	r2, [r7, #8]
	ldrsh	r1, [r7, #12]
	ldrh	r0, [r7, #6]
	str	r0, [sp, #12]
	str	r1, [sp, #8]
	str	r2, [sp, #4]
	str	r3, [sp]
	mov	r3, r5
	mov	r2, r4
	ldr	r1, .L47+4
	ldr	r0, .L47+8
	bl	sprintf
	.loc 1 266 5
	ldr	r0, .L47+8
	bl	usart_print
	.loc 1 268 1
	nop
	adds	r7, r7, #24
	.cfi_def_cfa_offset 16
	mov	sp, r7
	.cfi_def_cfa_register 13
	@ sp needed
	pop	{r4, r5, r7, pc}
.L48:
	.align	2
.L47:
	.word	-1609957215
	.word	.LC2
	.word	buffer
	.cfi_endproc
.LFE10:
	.size	mpu_calculate, .-mpu_calculate
	.section	.rodata
	.align	2
.LC3:
	.ascii	"TEMP=%hi deg_C..valu=%hi\015\012\000"
	.text
	.align	1
	.global	mpu_tmperature
	.syntax unified
	.thumb
	.thumb_func
	.type	mpu_tmperature, %function
mpu_tmperature:
.LFB11:
	.loc 1 271 1
	.cfi_startproc
	@ args = 0, pretend = 0, frame = 8
	@ frame_needed = 1, uses_anonymous_args = 0
	push	{r7, lr}
	.cfi_def_cfa_offset 8
	.cfi_offset 7, -8
	.cfi_offset 14, -4
	sub	sp, sp, #8
	.cfi_def_cfa_offset 16
	add	r7, sp, #0
	.cfi_def_cfa_register 7
	.loc 1 276 12
	movs	r3, #0
	strh	r3, [r7, #6]	@ movhi
	.loc 1 278 2
	mov	r2, r7
	movs	r3, #2
	movs	r1, #65
	movs	r0, #208
	bl	i2c1_read
	.loc 1 280 30
	ldrb	r3, [r7]	@ zero_extendqisi2
	.loc 1 280 33
	lsls	r3, r3, #8
	.loc 1 280 14
	sxth	r2, r3
	.loc 1 280 42
	ldrb	r3, [r7, #1]	@ zero_extendqisi2
	sxth	r3, r3
	.loc 1 280 12
	orrs	r3, r3, r2
	strh	r3, [r7, #6]	@ movhi
	.loc 1 282 24
	ldrsh	r3, [r7, #6]
	ldr	r2, .L50
	smull	r1, r2, r2, r3
	asrs	r2, r2, #7
	asrs	r3, r3, #31
	subs	r3, r2, r3
	sxth	r3, r3
	uxth	r3, r3
	adds	r3, r3, #36
	uxth	r3, r3
	.loc 1 282 11
	strh	r3, [r7, #4]	@ movhi
	.loc 1 284 5
	ldrsh	r2, [r7, #4]
	ldrsh	r3, [r7, #6]
	ldr	r1, .L50+4
	ldr	r0, .L50+8
	bl	sprintf
	.loc 1 286 2
	ldr	r0, .L50+8
	bl	usart_print
	.loc 1 288 1
	nop
	adds	r7, r7, #8
	.cfi_def_cfa_offset 8
	mov	sp, r7
	.cfi_def_cfa_register 13
	@ sp needed
	pop	{r7, pc}
.L51:
	.align	2
.L50:
	.word	1616928865
	.word	.LC3
	.word	buffer
	.cfi_endproc
.LFE11:
	.size	mpu_tmperature, .-mpu_tmperature
	.section	.rodata
	.align	2
.LC4:
	.ascii	"data=%d\015\012\000"
	.text
	.align	1
	.global	mpu_init
	.syntax unified
	.thumb
	.thumb_func
	.type	mpu_init, %function
mpu_init:
.LFB12:
	.loc 1 291 1
	.cfi_startproc
	@ args = 0, pretend = 0, frame = 8
	@ frame_needed = 1, uses_anonymous_args = 0
	push	{r7, lr}
	.cfi_def_cfa_offset 8
	.cfi_offset 7, -8
	.cfi_offset 14, -4
	sub	sp, sp, #8
	.cfi_def_cfa_offset 16
	add	r7, sp, #0
	.cfi_def_cfa_register 7
	.loc 1 292 19
	movs	r3, #0
	strb	r3, [r7, #7]
	.loc 1 294 5
	adds	r2, r7, #7
	movs	r3, #1
	movs	r1, #28
	movs	r0, #208
	bl	i2c1_write
	.loc 1 296 2
	adds	r2, r7, #7
	movs	r3, #1
	movs	r1, #28
	movs	r0, #208
	bl	i2c1_read
	.loc 1 298 2
	ldrb	r3, [r7, #7]	@ zero_extendqisi2
	mov	r2, r3
	ldr	r1, .L53
	ldr	r0, .L53+4
	bl	sprintf
	.loc 1 300 5
	ldr	r0, .L53+4
	bl	usart_print
	.loc 1 302 1
	nop
	adds	r7, r7, #8
	.cfi_def_cfa_offset 8
	mov	sp, r7
	.cfi_def_cfa_register 13
	@ sp needed
	pop	{r7, pc}
.L54:
	.align	2
.L53:
	.word	.LC4
	.word	buffer
	.cfi_endproc
.LFE12:
	.size	mpu_init, .-mpu_init
	.align	1
	.global	usart_tx
	.syntax unified
	.thumb
	.thumb_func
	.type	usart_tx, %function
usart_tx:
.LFB13:
	.loc 1 305 1
	.cfi_startproc
	@ args = 0, pretend = 0, frame = 8
	@ frame_needed = 1, uses_anonymous_args = 0
	@ link register save eliminated.
	push	{r7}
	.cfi_def_cfa_offset 4
	.cfi_offset 7, -4
	sub	sp, sp, #12
	.cfi_def_cfa_offset 16
	add	r7, sp, #0
	.cfi_def_cfa_register 7
	mov	r3, r0
	strb	r3, [r7, #7]
	.loc 1 308 16
	ldr	r3, .L58
	ldr	r3, [r3]
	ldr	r2, [r3]
	ldr	r3, .L58
	ldr	r3, [r3]
	bic	r2, r2, #64
	str	r2, [r3]
	.loc 1 310 10
	nop
.L56:
	.loc 1 310 19 discriminator 1
	ldr	r3, .L58
	ldr	r3, [r3]
	ldr	r3, [r3]
	.loc 1 310 24 discriminator 1
	and	r3, r3, #128
	.loc 1 310 10 discriminator 1
	cmp	r3, #0
	beq	.L56
	.loc 1 311 11
	ldr	r3, .L58
	ldr	r3, [r3]
	.loc 1 311 16
	ldrb	r2, [r7, #7]	@ zero_extendqisi2
	str	r2, [r3, #4]
	.loc 1 313 11
	ldr	r3, .L58
	ldr	r3, [r3]
	.loc 1 313 16
	ldrb	r2, [r7, #7]	@ zero_extendqisi2
	str	r2, [r3, #4]
	.loc 1 314 10
	nop
.L57:
	.loc 1 314 19 discriminator 1
	ldr	r3, .L58
	ldr	r3, [r3]
	ldr	r3, [r3]
	.loc 1 314 24 discriminator 1
	and	r3, r3, #64
	.loc 1 314 10 discriminator 1
	cmp	r3, #0
	beq	.L57
	.loc 1 316 1
	nop
	nop
	adds	r7, r7, #12
	.cfi_def_cfa_offset 4
	mov	sp, r7
	.cfi_def_cfa_register 13
	@ sp needed
	ldr	r7, [sp], #4
	.cfi_restore 7
	.cfi_def_cfa_offset 0
	bx	lr
.L59:
	.align	2
.L58:
	.word	USART2
	.cfi_endproc
.LFE13:
	.size	usart_tx, .-usart_tx
	.align	1
	.global	usart_rx
	.syntax unified
	.thumb
	.thumb_func
	.type	usart_rx, %function
usart_rx:
.LFB14:
	.loc 1 318 1
	.cfi_startproc
	@ args = 0, pretend = 0, frame = 0
	@ frame_needed = 1, uses_anonymous_args = 0
	@ link register save eliminated.
	push	{r7}
	.cfi_def_cfa_offset 4
	.cfi_offset 7, -4
	add	r7, sp, #0
	.cfi_def_cfa_register 7
	.loc 1 320 18
	ldr	r3, .L63
	ldr	r3, [r3]
	ldr	r2, [r3, #12]
	ldr	r3, .L63
	ldr	r3, [r3]
	orr	r2, r2, #4
	str	r2, [r3, #12]
	.loc 1 322 8
	nop
.L61:
	.loc 1 322 17 discriminator 1
	ldr	r3, .L63
	ldr	r3, [r3]
	ldr	r3, [r3]
	.loc 1 322 22 discriminator 1
	and	r3, r3, #32
	.loc 1 322 8 discriminator 1
	cmp	r3, #0
	beq	.L61
	.loc 1 323 19
	ldr	r3, .L63
	ldr	r3, [r3]
	ldr	r3, [r3, #4]
	uxtb	r3, r3
	.loc 1 325 1
	mov	r0, r3
	mov	sp, r7
	.cfi_def_cfa_register 13
	@ sp needed
	ldr	r7, [sp], #4
	.cfi_restore 7
	.cfi_def_cfa_offset 0
	bx	lr
.L64:
	.align	2
.L63:
	.word	USART2
	.cfi_endproc
.LFE14:
	.size	usart_rx, .-usart_rx
	.align	1
	.global	usart_print
	.syntax unified
	.thumb
	.thumb_func
	.type	usart_print, %function
usart_print:
.LFB15:
	.loc 1 327 1
	.cfi_startproc
	@ args = 0, pretend = 0, frame = 8
	@ frame_needed = 1, uses_anonymous_args = 0
	push	{r7, lr}
	.cfi_def_cfa_offset 8
	.cfi_offset 7, -8
	.cfi_offset 14, -4
	sub	sp, sp, #8
	.cfi_def_cfa_offset 16
	add	r7, sp, #0
	.cfi_def_cfa_register 7
	str	r0, [r7, #4]
	.loc 1 328 11
	b	.L66
.L67:
	.loc 1 330 20
	ldr	r3, [r7, #4]
	adds	r2, r3, #1
	str	r2, [r7, #4]
	.loc 1 330 9
	ldrb	r3, [r3]	@ zero_extendqisi2
	mov	r0, r3
	bl	usart_tx
.L66:
	.loc 1 328 12
	ldr	r3, [r7, #4]
	ldrb	r3, [r3]	@ zero_extendqisi2
	.loc 1 328 11
	cmp	r3, #0
	bne	.L67
	.loc 1 332 1
	nop
	nop
	adds	r7, r7, #8
	.cfi_def_cfa_offset 8
	mov	sp, r7
	.cfi_def_cfa_register 13
	@ sp needed
	pop	{r7, pc}
	.cfi_endproc
.LFE15:
	.size	usart_print, .-usart_print
	.align	1
	.global	delay
	.syntax unified
	.thumb
	.thumb_func
	.type	delay, %function
delay:
.LFB16:
	.loc 1 334 1
	.cfi_startproc
	@ args = 0, pretend = 0, frame = 8
	@ frame_needed = 1, uses_anonymous_args = 0
	@ link register save eliminated.
	push	{r7}
	.cfi_def_cfa_offset 4
	.cfi_offset 7, -4
	sub	sp, sp, #12
	.cfi_def_cfa_offset 16
	add	r7, sp, #0
	.cfi_def_cfa_register 7
.LBB2:
	.loc 1 335 10
	movs	r3, #0
	str	r3, [r7, #4]
	.loc 1 335 2
	b	.L69
.L70:
	.loc 1 335 26 discriminator 3
	ldr	r3, [r7, #4]
	adds	r3, r3, #1
	str	r3, [r7, #4]
.L69:
	.loc 1 335 2 discriminator 1
	ldr	r3, [r7, #4]
	ldr	r2, .L71
	cmp	r3, r2
	ble	.L70
.LBE2:
	.loc 1 337 1
	nop
	nop
	adds	r7, r7, #12
	.cfi_def_cfa_offset 4
	mov	sp, r7
	.cfi_def_cfa_register 13
	@ sp needed
	ldr	r7, [sp], #4
	.cfi_restore 7
	.cfi_def_cfa_offset 0
	bx	lr
.L72:
	.align	2
.L71:
	.word	999999
	.cfi_endproc
.LFE16:
	.size	delay, .-delay
.Letext0:
	.file 2 "main.h"