	.cpu cortex-m4
	.arch armv7e-m
	.fpu fpv4-sp-d16
	.eabi_attribute 27, 1
	.eabi_attribute 28, 1
	.eabi_attribute 20, 1
	.eabi_attribute 21, 1
	.eabi_attribute 23, 3
	.eabi_attribute 24, 1
	.eabi_attribute 25, 1
	.eabi_attribute 26, 1
	.eabi_attribute 30, 6
	.eabi_attribute 34, 1
	.eabi_attribute 18, 4
	.file	"main.c"
	.text
.Ltext0:
	.cfi_sections	.debug_frame
	.global	RCC_CR
	.data
	.align	2
	.type	RCC_CR, %object
	.size	RCC_CR, 4
RCC_CR:
	.word	1073887232
	.global	RCC_PLLCFGR
	.align	2
	.type	RCC_PLLCFGR, %object
	.size	RCC_PLLCFGR, 4
RCC_PLLCFGR:
	.word	1073887236
	.global	RCC_CFGR
	.align	2
	.type	RCC_CFGR, %object
	.size	RCC_CFGR, 4
RCC_CFGR:
	.word	1073887240
	.global	RCC_AHB1ENR
	.align	2
	.type	RCC_AHB1ENR, %object
	.size	RCC_AHB1ENR, 4
RCC_AHB1ENR:
	.word	1073887280
	.global	RCC_APB2ENR
	.align	2
	.type	RCC_APB2ENR, %object
	.size	RCC_APB2ENR, 4
RCC_APB2ENR:
	.word	1073887300
	.global	RCC_APB1ENR
	.align	2
	.type	RCC_APB1ENR, %object
	.size	RCC_APB1ENR, 4
RCC_APB1ENR:
	.word	1073887296
	.global	GPIOB_MODER
	.align	2
	.type	GPIOB_MODER, %object
	.size	GPIOB_MODER, 4
GPIOB_MODER:
	.word	1073873920
	.global	GPIOB_OTYPER
	.align	2
	.type	GPIOB_OTYPER, %object
	.size	GPIOB_OTYPER, 4
GPIOB_OTYPER:
	.word	1073873924
	.global	GPIOB_OSPEEDR
	.align	2
	.type	GPIOB_OSPEEDR, %object
	.size	GPIOB_OSPEEDR, 4
GPIOB_OSPEEDR:
	.word	1073873928
	.global	GPIOB_PUPDR
	.align	2
	.type	GPIOB_PUPDR, %object
	.size	GPIOB_PUPDR, 4
GPIOB_PUPDR:
	.word	1073873932
	.global	GPIOB_AFRL
	.align	2
	.type	GPIOB_AFRL, %object
	.size	GPIOB_AFRL, 4
GPIOB_AFRL:
	.word	1073873952
	.global	GPIOB_AFRH
	.align	2
	.type	GPIOB_AFRH, %object
	.size	GPIOB_AFRH, 4
GPIOB_AFRH:
	.word	1073873956
	.global	GPIOA_MODER
	.align	2
	.type	GPIOA_MODER, %object
	.size	GPIOA_MODER, 4
GPIOA_MODER:
	.word	1073872896
	.global	GPIOA_OTYPER
	.align	2
	.type	GPIOA_OTYPER, %object
	.size	GPIOA_OTYPER, 4
GPIOA_OTYPER:
	.word	1073872900
	.global	GPIOA_ODR
	.align	2
	.type	GPIOA_ODR, %object
	.size	GPIOA_ODR, 4
GPIOA_ODR:
	.word	1073872916
	.global	GPIOA_PUPDR
	.align	2
	.type	GPIOA_PUPDR, %object
	.size	GPIOA_PUPDR, 4
GPIOA_PUPDR:
	.word	1073872908
	.global	GPIOA_AFRL
	.align	2
	.type	GPIOA_AFRL, %object
	.size	GPIOA_AFRL, 4
GPIOA_AFRL:
	.word	1073872928
	.global	TIM10_CR1
	.align	2
	.type	TIM10_CR1, %object
	.size	TIM10_CR1, 4
TIM10_CR1:
	.word	1073824768
	.global	TIM10_CNT
	.align	2
	.type	TIM10_CNT, %object
	.size	TIM10_CNT, 4
TIM10_CNT:
	.word	1073824804
	.global	TIM10_PSC
	.align	2
	.type	TIM10_PSC, %object
	.size	TIM10_PSC, 4
TIM10_PSC:
	.word	1073824808
	.global	TIM10_ARR
	.align	2
	.type	TIM10_ARR, %object
	.size	TIM10_ARR, 4
TIM10_ARR:
	.word	1073824812
	.global	TIM10_SR
	.align	2
	.type	TIM10_SR, %object
	.size	TIM10_SR, 4
TIM10_SR:
	.word	1073824784
	.global	TIM10_EGR
	.align	2
	.type	TIM10_EGR, %object
	.size	TIM10_EGR, 4
TIM10_EGR:
	.word	1073824788
	.global	TIM10_DIER
	.align	2
	.type	TIM10_DIER, %object
	.size	TIM10_DIER, 4
TIM10_DIER:
	.word	1073824780
	.global	TIM10_CCMR1
	.align	2
	.type	TIM10_CCMR1, %object
	.size	TIM10_CCMR1, 4
TIM10_CCMR1:
	.word	1073824792
	.global	TIM10_CCR1
	.align	2
	.type	TIM10_CCR1, %object
	.size	TIM10_CCR1, 4
TIM10_CCR1:
	.word	1073824820
	.global	TIM10_CCER
	.align	2
	.type	TIM10_CCER, %object
	.size	TIM10_CCER, 4
TIM10_CCER:
	.word	1073824800
	.global	NVIC_ISER
	.align	2
	.type	NVIC_ISER, %object
	.size	NVIC_ISER, 4
NVIC_ISER:
	.word	-536813312
	.global	NVIC_ICER
	.align	2
	.type	NVIC_ICER, %object
	.size	NVIC_ICER, 4
NVIC_ICER:
	.word	-536813184
	.global	NVIC_ISPR
	.align	2
	.type	NVIC_ISPR, %object
	.size	NVIC_ISPR, 4
NVIC_ISPR:
	.word	-536813056
	.global	NVIC_ICPR
	.align	2
	.type	NVIC_ICPR, %object
	.size	NVIC_ICPR, 4
NVIC_ICPR:
	.word	-536812928
	.global	NVIC_IABR
	.align	2
	.type	NVIC_IABR, %object
	.size	NVIC_IABR, 4
NVIC_IABR:
	.word	-536812800
	.global	NVIC_IPR
	.align	2
	.type	NVIC_IPR, %object
	.size	NVIC_IPR, 4
NVIC_IPR:
	.word	-536812544
	.global	USART2_SR
	.align	2
	.type	USART2_SR, %object
	.size	USART2_SR, 4
USART2_SR:
	.word	1073759232
	.global	USART2_DR
	.align	2
	.type	USART2_DR, %object
	.size	USART2_DR, 4
USART2_DR:
	.word	1073759236
	.global	USART2_BRR
	.align	2
	.type	USART2_BRR, %object
	.size	USART2_BRR, 4
USART2_BRR:
	.word	1073759240
	.global	USART2_CR1
	.align	2
	.type	USART2_CR1, %object
	.size	USART2_CR1, 4
USART2_CR1:
	.word	1073759244
	.global	USART2_CR2
	.align	2
	.type	USART2_CR2, %object
	.size	USART2_CR2, 4
USART2_CR2:
	.word	1073759248
	.global	USART2_CR3
	.align	2
	.type	USART2_CR3, %object
	.size	USART2_CR3, 4
USART2_CR3:
	.word	1073759252
	.global	USART2_GTPR
	.align	2
	.type	USART2_GTPR, %object
	.size	USART2_GTPR, 4
USART2_GTPR:
	.word	1073759256
	.global	DMA1_LISR
	.align	2
	.type	DMA1_LISR, %object
	.size	DMA1_LISR, 4
DMA1_LISR:
	.word	1073897472
	.global	DMA1_HISR
	.align	2
	.type	DMA1_HISR, %object
	.size	DMA1_HISR, 4
DMA1_HISR:
	.word	1073897476
	.global	DMA1_LIFCR
	.align	2
	.type	DMA1_LIFCR, %object
	.size	DMA1_LIFCR, 4
DMA1_LIFCR:
	.word	1073897480
	.global	DMA1_HIFCR
	.align	2
	.type	DMA1_HIFCR, %object
	.size	DMA1_HIFCR, 4
DMA1_HIFCR:
	.word	1073897484
	.global	DMA1_S6CR
	.align	2
	.type	DMA1_S6CR, %object
	.size	DMA1_S6CR, 4
DMA1_S6CR:
	.word	1073897632
	.global	DMA1_S6NDTR
	.align	2
	.type	DMA1_S6NDTR, %object
	.size	DMA1_S6NDTR, 4
DMA1_S6NDTR:
	.word	1073897636
	.global	DMA1_S6PAR
	.align	2
	.type	DMA1_S6PAR, %object
	.size	DMA1_S6PAR, 4
DMA1_S6PAR:
	.word	1073897640
	.global	DMA1_S6M0AR
	.align	2
	.type	DMA1_S6M0AR, %object
	.size	DMA1_S6M0AR, 4
DMA1_S6M0AR:
	.word	1073897644
	.global	DMA1_S6M1AR
	.align	2
	.type	DMA1_S6M1AR, %object
	.size	DMA1_S6M1AR, 4
DMA1_S6M1AR:
	.word	1073897648
	.global	DMA1_S6FCR
	.align	2
	.type	DMA1_S6FCR, %object
	.size	DMA1_S6FCR, 4
DMA1_S6FCR:
	.word	1073897652
	.global	I2C1_CR1
	.align	2
	.type	I2C1_CR1, %object
	.size	I2C1_CR1, 4
I2C1_CR1:
	.word	1073763328
	.global	I2C1_CR2
	.align	2
	.type	I2C1_CR2, %object
	.size	I2C1_CR2, 4
I2C1_CR2:
	.word	1073763332
	.global	I2C1_OAR1
	.align	2
	.type	I2C1_OAR1, %object
	.size	I2C1_OAR1, 4
I2C1_OAR1:
	.word	1073763336
	.global	I2C1_OAR2
	.align	2
	.type	I2C1_OAR2, %object
	.size	I2C1_OAR2, 4
I2C1_OAR2:
	.word	1073763340
	.global	I2C1_DR
	.align	2
	.type	I2C1_DR, %object
	.size	I2C1_DR, 4
I2C1_DR:
	.word	1073763344
	.global	I2C1_SR1
	.align	2
	.type	I2C1_SR1, %object
	.size	I2C1_SR1, 4
I2C1_SR1:
	.word	1073763348
	.global	I2C1_SR2
	.align	2
	.type	I2C1_SR2, %object
	.size	I2C1_SR2, 4
I2C1_SR2:
	.word	1073763352
	.global	I2C1_CCR
	.align	2
	.type	I2C1_CCR, %object
	.size	I2C1_CCR, 4
I2C1_CCR:
	.word	1073763356
	.global	I2C1_TRISE
	.align	2
	.type	I2C1_TRISE, %object
	.size	I2C1_TRISE, 4
I2C1_TRISE:
	.word	1073763360
	.global	I2C1_FLTR
	.align	2
	.type	I2C1_FLTR, %object
	.size	I2C1_FLTR, 4
I2C1_FLTR:
	.word	1073763364
	.global	mystr
	.align	2
	.type	mystr, %object
	.size	mystr, 29
mystr:
	.ascii	"\015\012school of linux Dharmapuri\000"
	.global	str
	.align	2
	.type	str, %object
	.size	str, 31
str:
	.ascii	"\015\012ARM CORTEX STM32F PROESSOR\015\012\000"
	.text
	.align	1
	.global	main
	.syntax unified
	.thumb
	.thumb_func
	.type	main, %function
main:
.LFB0:
	.file 1 "main.c"
	.loc 1 107 1
	.cfi_startproc
	@ args = 0, pretend = 0, frame = 16
	@ frame_needed = 1, uses_anonymous_args = 0
	push	{r7, lr}
	.cfi_def_cfa_offset 8
	.cfi_offset 7, -8
	.cfi_offset 14, -4
	sub	sp, sp, #16
	.cfi_def_cfa_offset 24
	add	r7, sp, #0
	.cfi_def_cfa_register 7
	.loc 1 109 19
	movs	r3, #0
	strb	r3, [r7, #7]
	.loc 1 111 14
	ldr	r0, .L3
	bl	strlen
	mov	r3, r0
	.loc 1 111 9
	str	r3, [r7, #12]
	.loc 1 112 14
	ldr	r0, .L3+4
	bl	strlen
	mov	r3, r0
	.loc 1 112 9
	str	r3, [r7, #8]
	.loc 1 114 5
	bl	RCC_CONFIG
	.loc 1 115 5
	bl	GPIO_CONFIG
	.loc 1 120 5
	bl	i2c1_init
	.loc 1 122 2
	adds	r2, r7, #7
	movs	r3, #1
	movs	r1, #117
	movs	r0, #208
	bl	i2c1_read
.L2:
	.loc 1 126 11 discriminator 1
	b	.L2
.L4:
	.align	2
.L3:
	.word	mystr
	.word	str
	.cfi_endproc
.LFE0:
	.size	main, .-main
	.align	1
	.global	RCC_CONFIG
	.syntax unified
	.thumb
	.thumb_func
	.type	RCC_CONFIG, %function
RCC_CONFIG:
.LFB1:
	.loc 1 132 1
	.cfi_startproc
	@ args = 0, pretend = 0, frame = 0
	@ frame_needed = 1, uses_anonymous_args = 0
	@ link register save eliminated.
	push	{r7}
	.cfi_def_cfa_offset 4
	.cfi_offset 7, -4
	add	r7, sp, #0
	.cfi_def_cfa_register 7
	.loc 1 133 22
	ldr	r3, .L7
	ldr	r3, [r3]
	ldr	r2, [r3]
	.loc 1 133 7
	ldr	r3, .L7
	ldr	r3, [r3]
	.loc 1 133 35
	orr	r2, r2, #4
	.loc 1 133 20
	str	r2, [r3]
	.loc 1 134 22
	ldr	r3, .L7
	ldr	r3, [r3]
	ldr	r2, [r3]
	.loc 1 134 7
	ldr	r3, .L7
	ldr	r3, [r3]
	.loc 1 134 35
	orr	r2, r2, #2
	.loc 1 134 20
	str	r2, [r3]
	.loc 1 135 22
	ldr	r3, .L7
	ldr	r3, [r3]
	ldr	r2, [r3]
	.loc 1 135 7
	ldr	r3, .L7
	ldr	r3, [r3]
	.loc 1 135 35
	orr	r2, r2, #1
	.loc 1 135 20
	str	r2, [r3]
	.loc 1 137 17
	ldr	r3, .L7+4
	ldr	r3, [r3]
	ldr	r2, [r3]
	.loc 1 137 7
	ldr	r3, .L7+4
	ldr	r3, [r3]
	.loc 1 137 25
	bic	r2, r2, #65536
	.loc 1 137 15
	str	r2, [r3]
	.loc 1 138 17
	ldr	r3, .L7+4
	ldr	r3, [r3]
	ldr	r2, [r3]
	.loc 1 138 7
	ldr	r3, .L7+4
	ldr	r3, [r3]
	.loc 1 138 25
	orr	r2, r2, #65536
	.loc 1 138 15
	str	r2, [r3]
	.loc 1 139 12
	nop
.L6:
	.loc 1 139 14 discriminator 1
	ldr	r3, .L7+4
	ldr	r3, [r3]
	ldr	r3, [r3]
	.loc 1 139 22 discriminator 1
	and	r3, r3, #131072
	.loc 1 139 12 discriminator 1
	cmp	r3, #0
	beq	.L6
	.loc 1 141 19
	ldr	r3, .L7+8
	ldr	r3, [r3]
	ldr	r2, [r3]
	.loc 1 141 7
	ldr	r3, .L7+8
	ldr	r3, [r3]
	.loc 1 141 29
	bic	r2, r2, #3
	.loc 1 141 17
	str	r2, [r3]
	.loc 1 142 19
	ldr	r3, .L7+8
	ldr	r3, [r3]
	ldr	r2, [r3]
	.loc 1 142 7
	ldr	r3, .L7+8
	ldr	r3, [r3]
	.loc 1 142 29
	orr	r2, r2, #1
	.loc 1 142 17
	str	r2, [r3]
	.loc 1 143 12
	nop
	.loc 1 143 15
	ldr	r3, .L7+8
	ldr	r3, [r3]
	ldr	r3, [r3]
	.loc 1 145 22
	ldr	r3, .L7+12
	ldr	r3, [r3]
	ldr	r2, [r3]
	.loc 1 145 7
	ldr	r3, .L7+12
	ldr	r3, [r3]
	.loc 1 145 35
	orr	r2, r2, #131072
	.loc 1 145 20
	str	r2, [r3]
	.loc 1 147 22
	ldr	r3, .L7+16
	ldr	r3, [r3]
	ldr	r2, [r3]
	.loc 1 147 7
	ldr	r3, .L7+16
	ldr	r3, [r3]
	.loc 1 147 34
	orr	r2, r2, #131072
	.loc 1 147 20
	str	r2, [r3]
	.loc 1 149 22
	ldr	r3, .L7+16
	ldr	r3, [r3]
	ldr	r2, [r3]
	.loc 1 149 7
	ldr	r3, .L7+16
	ldr	r3, [r3]
	.loc 1 149 34
	orr	r2, r2, #2097152
	.loc 1 149 20
	str	r2, [r3]
	.loc 1 151 22
	ldr	r3, .L7
	ldr	r3, [r3]
	ldr	r2, [r3]
	.loc 1 151 7
	ldr	r3, .L7
	ldr	r3, [r3]
	.loc 1 151 35
	orr	r2, r2, #2097152
	.loc 1 151 20
	str	r2, [r3]
	.loc 1 153 1
	nop
	mov	sp, r7
	.cfi_def_cfa_register 13
	@ sp needed
	ldr	r7, [sp], #4
	.cfi_restore 7
	.cfi_def_cfa_offset 0
	bx	lr
.L8:
	.align	2
.L7:
	.word	RCC_AHB1ENR
	.word	RCC_CR
	.word	RCC_CFGR
	.word	RCC_APB2ENR
	.word	RCC_APB1ENR
	.cfi_endproc
.LFE1:
	.size	RCC_CONFIG, .-RCC_CONFIG
	.align	1
	.global	GPIO_CONFIG
	.syntax unified
	.thumb
	.thumb_func
	.type	GPIO_CONFIG, %function
GPIO_CONFIG:
.LFB2:
	.loc 1 156 1
	.cfi_startproc
	@ args = 0, pretend = 0, frame = 0
	@ frame_needed = 1, uses_anonymous_args = 0
	@ link register save eliminated.
	push	{r7}
	.cfi_def_cfa_offset 4
	.cfi_offset 7, -4
	add	r7, sp, #0
	.cfi_def_cfa_register 7
	.loc 1 157 23
	ldr	r3, .L10
	ldr	r3, [r3]
	ldr	r2, [r3]
	.loc 1 157 8
	ldr	r3, .L10
	ldr	r3, [r3]
	.loc 1 157 36
	bic	r2, r2, #240
	.loc 1 157 21
	str	r2, [r3]
	.loc 1 158 23
	ldr	r3, .L10
	ldr	r3, [r3]
	ldr	r2, [r3]
	.loc 1 158 8
	ldr	r3, .L10
	ldr	r3, [r3]
	.loc 1 158 36
	orr	r2, r2, #160
	.loc 1 158 21
	str	r2, [r3]
	.loc 1 160 24
	ldr	r3, .L10+4
	ldr	r3, [r3]
	ldr	r2, [r3]
	.loc 1 160 8
	ldr	r3, .L10+4
	ldr	r3, [r3]
	.loc 1 160 38
	bic	r2, r2, #64
	.loc 1 160 22
	str	r2, [r3]
	.loc 1 161 24
	ldr	r3, .L10+4
	ldr	r3, [r3]
	ldr	r2, [r3]
	.loc 1 161 8
	ldr	r3, .L10+4
	ldr	r3, [r3]
	.loc 1 161 38
	bic	r2, r2, #128
	.loc 1 161 22
	str	r2, [r3]
	.loc 1 163 23
	ldr	r3, .L10+8
	ldr	r3, [r3]
	ldr	r2, [r3]
	.loc 1 163 8
	ldr	r3, .L10+8
	ldr	r3, [r3]
	.loc 1 163 36
	bic	r2, r2, #240
	.loc 1 163 21
	str	r2, [r3]
	.loc 1 165 22
	ldr	r3, .L10+12
	ldr	r3, [r3]
	ldr	r2, [r3]
	.loc 1 165 8
	ldr	r3, .L10+12
	ldr	r3, [r3]
	.loc 1 165 34
	bic	r2, r2, #3840
	.loc 1 165 20
	str	r2, [r3]
	.loc 1 166 22
	ldr	r3, .L10+12
	ldr	r3, [r3]
	ldr	r2, [r3]
	.loc 1 166 8
	ldr	r3, .L10+12
	ldr	r3, [r3]
	.loc 1 166 34
	orr	r2, r2, #1792
	.loc 1 166 20
	str	r2, [r3]
	.loc 1 168 22
	ldr	r3, .L10+12
	ldr	r3, [r3]
	ldr	r2, [r3]
	.loc 1 168 8
	ldr	r3, .L10+12
	ldr	r3, [r3]
	.loc 1 168 34
	bic	r2, r2, #61440
	.loc 1 168 20
	str	r2, [r3]
	.loc 1 169 22
	ldr	r3, .L10+12
	ldr	r3, [r3]
	ldr	r2, [r3]
	.loc 1 169 8
	ldr	r3, .L10+12
	ldr	r3, [r3]
	.loc 1 169 34
	orr	r2, r2, #28672
	.loc 1 169 20
	str	r2, [r3]
	.loc 1 171 23
	ldr	r3, .L10+16
	ldr	r3, [r3]
	ldr	r2, [r3]
	.loc 1 171 8
	ldr	r3, .L10+16
	ldr	r3, [r3]
	.loc 1 171 36
	bic	r2, r2, #61440
	.loc 1 171 21
	str	r2, [r3]
	.loc 1 172 23
	ldr	r3, .L10+16
	ldr	r3, [r3]
	ldr	r2, [r3]
	.loc 1 172 8
	ldr	r3, .L10+16
	ldr	r3, [r3]
	.loc 1 172 36
	orr	r2, r2, #40960
	.loc 1 172 21
	str	r2, [r3]
	.loc 1 174 24
	ldr	r3, .L10+20
	ldr	r3, [r3]
	ldr	r2, [r3]
	.loc 1 174 8
	ldr	r3, .L10+20
	ldr	r3, [r3]
	.loc 1 174 38
	bic	r2, r2, #192
	.loc 1 174 22
	str	r2, [r3]
	.loc 1 179 23
	ldr	r3, .L10+24
	ldr	r3, [r3]
	ldr	r2, [r3]
	.loc 1 179 8
	ldr	r3, .L10+24
	ldr	r3, [r3]
	.loc 1 179 36
	bic	r2, r2, #61440
	.loc 1 179 21
	str	r2, [r3]
	.loc 1 182 22
	ldr	r3, .L10+28
	ldr	r3, [r3]
	ldr	r2, [r3]
	.loc 1 182 8
	ldr	r3, .L10+28
	ldr	r3, [r3]
	.loc 1 182 34
	bic	r2, r2, #251658240
	.loc 1 182 20
	str	r2, [r3]
	.loc 1 183 22
	ldr	r3, .L10+28
	ldr	r3, [r3]
	ldr	r2, [r3]
	.loc 1 183 8
	ldr	r3, .L10+28
	ldr	r3, [r3]
	.loc 1 183 34
	orr	r2, r2, #67108864
	.loc 1 183 20
	str	r2, [r3]
	.loc 1 185 22
	ldr	r3, .L10+28
	ldr	r3, [r3]
	ldr	r2, [r3]
	.loc 1 185 8
	ldr	r3, .L10+28
	ldr	r3, [r3]
	.loc 1 185 34
	bic	r2, r2, #-268435456
	.loc 1 185 20
	str	r2, [r3]
	.loc 1 186 22
	ldr	r3, .L10+28
	ldr	r3, [r3]
	ldr	r2, [r3]
	.loc 1 186 8
	ldr	r3, .L10+28
	ldr	r3, [r3]
	.loc 1 186 34
	orr	r2, r2, #1073741824
	.loc 1 186 20
	str	r2, [r3]
	.loc 1 188 1
	nop
	mov	sp, r7
	.cfi_def_cfa_register 13
	@ sp needed
	ldr	r7, [sp], #4
	.cfi_restore 7
	.cfi_def_cfa_offset 0
	bx	lr
.L11:
	.align	2
.L10:
	.word	GPIOA_MODER
	.word	GPIOA_OTYPER
	.word	GPIOA_PUPDR
	.word	GPIOA_AFRL
	.word	GPIOB_MODER
	.word	GPIOB_OTYPER
	.word	GPIOB_PUPDR
	.word	GPIOB_AFRL
	.cfi_endproc
.LFE2:
	.size	GPIO_CONFIG, .-GPIO_CONFIG
	.align	1
	.global	USART2_INIT
	.syntax unified
	.thumb
	.thumb_func
	.type	USART2_INIT, %function
USART2_INIT:
.LFB3:
	.loc 1 191 1
	.cfi_startproc
	@ args = 0, pretend = 0, frame = 0
	@ frame_needed = 1, uses_anonymous_args = 0
	@ link register save eliminated.
	push	{r7}
	.cfi_def_cfa_offset 4
	.cfi_offset 7, -4
	add	r7, sp, #0
	.cfi_def_cfa_register 7
	.loc 1 193 16
	ldr	r3, .L13
	ldr	r3, [r3]
	ldr	r2, [r3]
	.loc 1 193 2
	ldr	r3, .L13
	ldr	r3, [r3]
	.loc 1 193 28
	orr	r2, r2, #8192
	.loc 1 193 14
	str	r2, [r3]
	.loc 1 195 16
	ldr	r3, .L13+4
	ldr	r3, [r3]
	ldr	r3, [r3]
	.loc 1 195 2
	ldr	r2, .L13+4
	ldr	r2, [r2]
	.loc 1 195 28
	bic	r3, r3, #65280
	bic	r3, r3, #240
	.loc 1 195 14
	str	r3, [r2]
	.loc 1 197 16
	ldr	r3, .L13+4
	ldr	r3, [r3]
	ldr	r3, [r3]
	.loc 1 197 2
	ldr	r2, .L13+4
	ldr	r2, [r2]
	.loc 1 197 28
	orr	r3, r3, #5184
	orr	r3, r3, #16
	.loc 1 197 14
	str	r3, [r2]
	.loc 1 199 16
	ldr	r3, .L13+4
	ldr	r3, [r3]
	ldr	r2, [r3]
	.loc 1 199 2
	ldr	r3, .L13+4
	ldr	r3, [r3]
	.loc 1 199 28
	bic	r2, r2, #15
	.loc 1 199 14
	str	r2, [r3]
	.loc 1 201 23
	ldr	r3, .L13+4
	ldr	r3, [r3]
	ldr	r2, [r3]
	.loc 1 201 9
	ldr	r3, .L13+4
	ldr	r3, [r3]
	.loc 1 201 34
	orr	r2, r2, #4
	.loc 1 201 21
	str	r2, [r3]
	.loc 1 203 16
	ldr	r3, .L13
	ldr	r3, [r3]
	ldr	r2, [r3]
	.loc 1 203 2
	ldr	r3, .L13
	ldr	r3, [r3]
	.loc 1 203 28
	orr	r2, r2, #32768
	.loc 1 203 14
	str	r2, [r3]
	.loc 1 205 16
	ldr	r3, .L13
	ldr	r3, [r3]
	ldr	r2, [r3]
	.loc 1 205 2
	ldr	r3, .L13
	ldr	r3, [r3]
	.loc 1 205 28
	bic	r2, r2, #4096
	.loc 1 205 14
	str	r2, [r3]
	.loc 1 207 23
	ldr	r3, .L13
	ldr	r3, [r3]
	ldr	r2, [r3]
	.loc 1 207 9
	ldr	r3, .L13
	ldr	r3, [r3]
	.loc 1 207 35
	orr	r2, r2, #8
	.loc 1 207 21
	str	r2, [r3]
	.loc 1 209 23
	ldr	r3, .L13+8
	ldr	r3, [r3]
	ldr	r2, [r3]
	.loc 1 209 9
	ldr	r3, .L13+8
	ldr	r3, [r3]
	.loc 1 209 35
	orr	r2, r2, #128
	.loc 1 209 21
	str	r2, [r3]
	.loc 1 211 16
	ldr	r3, .L13+8
	ldr	r3, [r3]
	ldr	r2, [r3]
	.loc 1 211 2
	ldr	r3, .L13+8
	ldr	r3, [r3]
	.loc 1 211 28
	bic	r2, r2, #8
	.loc 1 211 14
	str	r2, [r3]
	.loc 1 213 15
	ldr	r3, .L13+12
	ldr	r3, [r3]
	ldr	r2, [r3]
	.loc 1 213 2
	ldr	r3, .L13+12
	ldr	r3, [r3]
	.loc 1 213 26
	bic	r2, r2, #64
	.loc 1 213 13
	str	r2, [r3]
	.loc 1 214 1
	nop
	mov	sp, r7
	.cfi_def_cfa_register 13
	@ sp needed
	ldr	r7, [sp], #4
	.cfi_restore 7
	.cfi_def_cfa_offset 0
	bx	lr
.L14:
	.align	2
.L13:
	.word	USART2_CR1
	.word	USART2_BRR
	.word	USART2_CR3
	.word	USART2_SR
	.cfi_endproc
.LFE3:
	.size	USART2_INIT, .-USART2_INIT
	.align	1
	.global	i2c1_init
	.syntax unified
	.thumb
	.thumb_func
	.type	i2c1_init, %function
i2c1_init:
.LFB4:
	.loc 1 217 1
	.cfi_startproc
	@ args = 0, pretend = 0, frame = 0
	@ frame_needed = 1, uses_anonymous_args = 0
	@ link register save eliminated.
	push	{r7}
	.cfi_def_cfa_offset 4
	.cfi_offset 7, -4
	add	r7, sp, #0
	.cfi_def_cfa_register 7
	.loc 1 218 14
	ldr	r3, .L16
	ldr	r3, [r3]
	ldr	r2, [r3]
	.loc 1 218 2
	ldr	r3, .L16
	ldr	r3, [r3]
	.loc 1 218 24
	orr	r2, r2, #32768
	.loc 1 218 12
	str	r2, [r3]
	.loc 1 219 14
	ldr	r3, .L16
	ldr	r3, [r3]
	ldr	r2, [r3]
	.loc 1 219 2
	ldr	r3, .L16
	ldr	r3, [r3]
	.loc 1 219 24
	bic	r2, r2, #32768
	.loc 1 219 12
	str	r2, [r3]
	.loc 1 221 14
	ldr	r3, .L16
	ldr	r3, [r3]
	ldr	r2, [r3]
	.loc 1 221 2
	ldr	r3, .L16
	ldr	r3, [r3]
	.loc 1 221 24
	bic	r2, r2, #8192
	.loc 1 221 12
	str	r2, [r3]
	.loc 1 223 14
	ldr	r3, .L16
	ldr	r3, [r3]
	ldr	r2, [r3]
	.loc 1 223 2
	ldr	r3, .L16
	ldr	r3, [r3]
	.loc 1 223 24
	bic	r2, r2, #4096
	.loc 1 223 12
	str	r2, [r3]
	.loc 1 225 14
	ldr	r3, .L16
	ldr	r3, [r3]
	ldr	r2, [r3]
	.loc 1 225 2
	ldr	r3, .L16
	ldr	r3, [r3]
	.loc 1 225 24
	bic	r2, r2, #2048
	.loc 1 225 12
	str	r2, [r3]
	.loc 1 227 14
	ldr	r3, .L16
	ldr	r3, [r3]
	ldr	r2, [r3]
	.loc 1 227 2
	ldr	r3, .L16
	ldr	r3, [r3]
	.loc 1 227 24
	bic	r2, r2, #128
	.loc 1 227 12
	str	r2, [r3]
	.loc 1 229 14
	ldr	r3, .L16
	ldr	r3, [r3]
	ldr	r2, [r3]
	.loc 1 229 2
	ldr	r3, .L16
	ldr	r3, [r3]
	.loc 1 229 24
	bic	r2, r2, #64
	.loc 1 229 12
	str	r2, [r3]
	.loc 1 231 14
	ldr	r3, .L16
	ldr	r3, [r3]
	ldr	r2, [r3]
	.loc 1 231 2
	ldr	r3, .L16
	ldr	r3, [r3]
	.loc 1 231 24
	bic	r2, r2, #32
	.loc 1 231 12
	str	r2, [r3]
	.loc 1 233 14
	ldr	r3, .L16
	ldr	r3, [r3]
	ldr	r2, [r3]
	.loc 1 233 2
	ldr	r3, .L16
	ldr	r3, [r3]
	.loc 1 233 24
	bic	r2, r2, #16
	.loc 1 233 12
	str	r2, [r3]
	.loc 1 235 14
	ldr	r3, .L16
	ldr	r3, [r3]
	ldr	r2, [r3]
	.loc 1 235 2
	ldr	r3, .L16
	ldr	r3, [r3]
	.loc 1 235 24
	bic	r2, r2, #8
	.loc 1 235 12
	str	r2, [r3]
	.loc 1 237 17
	ldr	r3, .L16
	ldr	r3, [r3]
	ldr	r2, [r3]
	.loc 1 237 5
	ldr	r3, .L16
	ldr	r3, [r3]
	.loc 1 237 27
	bic	r2, r2, #2
	.loc 1 237 15
	str	r2, [r3]
	.loc 1 239 14
	ldr	r3, .L16
	ldr	r3, [r3]
	ldr	r2, [r3]
	.loc 1 239 2
	ldr	r3, .L16
	ldr	r3, [r3]
	.loc 1 239 23
	orr	r2, r2, #1024
	.loc 1 239 12
	str	r2, [r3]
	.loc 1 241 14
	ldr	r3, .L16+4
	ldr	r3, [r3]
	ldr	r2, [r3]
	.loc 1 241 2
	ldr	r3, .L16+4
	ldr	r3, [r3]
	.loc 1 241 24
	bic	r2, r2, #63
	.loc 1 241 12
	str	r2, [r3]
	.loc 1 242 14
	ldr	r3, .L16+4
	ldr	r3, [r3]
	ldr	r2, [r3]
	.loc 1 242 2
	ldr	r3, .L16+4
	ldr	r3, [r3]
	.loc 1 242 24
	orr	r2, r2, #25
	.loc 1 242 12
	str	r2, [r3]
	.loc 1 244 2
	ldr	r3, .L16+8
	ldr	r3, [r3]
	.loc 1 244 12
	movs	r2, #125
	str	r2, [r3]
	.loc 1 246 2
	ldr	r3, .L16+12
	ldr	r3, [r3]
	.loc 1 246 14
	movs	r2, #24
	str	r2, [r3]
	.loc 1 248 14
	ldr	r3, .L16
	ldr	r3, [r3]
	ldr	r2, [r3]
	.loc 1 248 2
	ldr	r3, .L16
	ldr	r3, [r3]
	.loc 1 248 23
	orr	r2, r2, #1
	.loc 1 248 12
	str	r2, [r3]
	.loc 1 250 1
	nop
	mov	sp, r7
	.cfi_def_cfa_register 13
	@ sp needed
	ldr	r7, [sp], #4
	.cfi_restore 7
	.cfi_def_cfa_offset 0
	bx	lr
.L17:
	.align	2
.L16:
	.word	I2C1_CR1
	.word	I2C1_CR2
	.word	I2C1_CCR
	.word	I2C1_TRISE
	.cfi_endproc
.LFE4:
	.size	i2c1_init, .-i2c1_init
	.align	1
	.global	i2c1_write
	.syntax unified
	.thumb
	.thumb_func
	.type	i2c1_write, %function
i2c1_write:
.LFB5:
	.loc 1 253 1
	.cfi_startproc
	@ args = 0, pretend = 0, frame = 16
	@ frame_needed = 1, uses_anonymous_args = 0
	@ link register save eliminated.
	push	{r7}
	.cfi_def_cfa_offset 4
	.cfi_offset 7, -4
	sub	sp, sp, #20
	.cfi_def_cfa_offset 24
	add	r7, sp, #0
	.cfi_def_cfa_register 7
	str	r2, [r7]
	mov	r2, r3
	mov	r3, r0
	strb	r3, [r7, #7]
	mov	r3, r1
	strb	r3, [r7, #6]
	mov	r3, r2
	strb	r3, [r7, #5]
	.loc 1 256 14
	ldr	r3, .L26
	ldr	r3, [r3]
	ldr	r2, [r3]
	.loc 1 256 2
	ldr	r3, .L26
	ldr	r3, [r3]
	.loc 1 256 23
	orr	r2, r2, #256
	.loc 1 256 12
	str	r2, [r3]
	.loc 1 258 7
	nop
.L19:
	.loc 1 258 10 discriminator 1
	ldr	r3, .L26+4
	ldr	r3, [r3]
	ldr	r3, [r3]
	.loc 1 258 20 discriminator 1
	and	r3, r3, #1
	.loc 1 258 7 discriminator 1
	cmp	r3, #0
	beq	.L19
	.loc 1 259 6
	ldr	r3, .L26+8
	ldr	r3, [r3]
	ldr	r3, [r3]
	.loc 1 259 5
	str	r3, [r7, #12]
	.loc 1 261 2
	ldr	r3, .L26+12
	ldr	r3, [r3]
	.loc 1 261 11
	ldrb	r2, [r7, #7]	@ zero_extendqisi2
	str	r2, [r3]
	.loc 1 263 7
	nop
.L20:
	.loc 1 263 10 discriminator 1
	ldr	r3, .L26+4
	ldr	r3, [r3]
	ldr	r3, [r3]
	.loc 1 263 20 discriminator 1
	and	r3, r3, #128
	.loc 1 263 7 discriminator 1
	cmp	r3, #0
	beq	.L20
	.loc 1 264 13
	ldr	r3, .L26+8
	ldr	r3, [r3]
	ldr	r3, [r3]
	.loc 1 264 12
	str	r3, [r7, #12]
	.loc 1 266 2
	ldr	r3, .L26+12
	ldr	r3, [r3]
	.loc 1 266 11
	ldrb	r2, [r7, #6]	@ zero_extendqisi2
	str	r2, [r3]
	.loc 1 268 7
	nop
.L21:
	.loc 1 268 10 discriminator 1
	ldr	r3, .L26+4
	ldr	r3, [r3]
	ldr	r3, [r3]
	.loc 1 268 20 discriminator 1
	and	r3, r3, #128
	.loc 1 268 7 discriminator 1
	cmp	r3, #0
	beq	.L21
	.loc 1 269 6
	ldr	r3, .L26+8
	ldr	r3, [r3]
	ldr	r3, [r3]
	.loc 1 269 5
	str	r3, [r7, #12]
	.loc 1 270 14
	movs	r3, #0
	str	r3, [r7, #8]
	.loc 1 270 9
	b	.L22
.L24:
	.loc 1 273 24
	ldr	r3, [r7, #8]
	ldr	r2, [r7]
	add	r3, r3, r2
	ldrb	r2, [r3]	@ zero_extendqisi2
	.loc 1 273 9
	ldr	r3, .L26+12
	ldr	r3, [r3]
	.loc 1 273 18
	str	r2, [r3]
	.loc 1 275 14
	nop
.L23:
	.loc 1 275 17 discriminator 1
	ldr	r3, .L26+4
	ldr	r3, [r3]
	ldr	r3, [r3]
	.loc 1 275 27 discriminator 1
	and	r3, r3, #128
	.loc 1 275 14 discriminator 1
	cmp	r3, #0
	beq	.L23
	.loc 1 276 13 discriminator 2
	ldr	r3, .L26+8
	ldr	r3, [r3]
	ldr	r3, [r3]
	.loc 1 276 12 discriminator 2
	str	r3, [r7, #12]
	.loc 1 270 30 discriminator 2
	ldr	r3, [r7, #8]
	adds	r3, r3, #1
	str	r3, [r7, #8]
.L22:
	.loc 1 270 19 discriminator 1
	ldrb	r2, [r7, #5]	@ zero_extendqisi2
	ldr	r3, [r7, #8]
	.loc 1 270 9 discriminator 1
	cmp	r2, r3
	bhi	.L24
	.loc 1 279 14
	ldr	r3, .L26
	ldr	r3, [r3]
	ldr	r2, [r3]
	.loc 1 279 2
	ldr	r3, .L26
	ldr	r3, [r3]
	.loc 1 279 23
	orr	r2, r2, #512
	.loc 1 279 12
	str	r2, [r3]
	.loc 1 280 7
	nop
.L25:
	.loc 1 280 10 discriminator 1
	ldr	r3, .L26+4
	ldr	r3, [r3]
	ldr	r3, [r3]
	.loc 1 280 20 discriminator 1
	and	r3, r3, #16
	.loc 1 280 7 discriminator 1
	cmp	r3, #0
	beq	.L25
	.loc 1 281 1
	nop
	nop
	adds	r7, r7, #20
	.cfi_def_cfa_offset 4
	mov	sp, r7
	.cfi_def_cfa_register 13
	@ sp needed
	ldr	r7, [sp], #4
	.cfi_restore 7
	.cfi_def_cfa_offset 0
	bx	lr
.L27:
	.align	2
.L26:
	.word	I2C1_CR1
	.word	I2C1_SR1
	.word	I2C1_SR2
	.word	I2C1_DR
	.cfi_endproc
.LFE5:
	.size	i2c1_write, .-i2c1_write
	.align	1
	.global	i2c1_read
	.syntax unified
	.thumb
	.thumb_func
	.type	i2c1_read, %function
i2c1_read:
.LFB6:
	.loc 1 284 1
	.cfi_startproc
	@ args = 0, pretend = 0, frame = 16
	@ frame_needed = 1, uses_anonymous_args = 0
	@ link register save eliminated.
	push	{r7}
	.cfi_def_cfa_offset 4
	.cfi_offset 7, -4
	sub	sp, sp, #20
	.cfi_def_cfa_offset 24
	add	r7, sp, #0
	.cfi_def_cfa_register 7
	str	r2, [r7]
	mov	r2, r3
	mov	r3, r0
	strb	r3, [r7, #7]
	mov	r3, r1
	strb	r3, [r7, #6]
	mov	r3, r2
	strb	r3, [r7, #5]
	.loc 1 287 14
	ldr	r3, .L41
	ldr	r3, [r3]
	ldr	r2, [r3]
	.loc 1 287 2
	ldr	r3, .L41
	ldr	r3, [r3]
	.loc 1 287 23
	orr	r2, r2, #256
	.loc 1 287 12
	str	r2, [r3]
	.loc 1 289 7
	nop
.L29:
	.loc 1 289 10 discriminator 1
	ldr	r3, .L41+4
	ldr	r3, [r3]
	ldr	r3, [r3]
	.loc 1 289 20 discriminator 1
	and	r3, r3, #1
	.loc 1 289 7 discriminator 1
	cmp	r3, #0
	beq	.L29
	.loc 1 290 6
	ldr	r3, .L41+8
	ldr	r3, [r3]
	ldr	r3, [r3]
	.loc 1 290 5
	str	r3, [r7, #12]
	.loc 1 292 2
	ldr	r3, .L41+12
	ldr	r3, [r3]
	.loc 1 292 11
	ldrb	r2, [r7, #7]	@ zero_extendqisi2
	str	r2, [r3]
	.loc 1 294 7
	nop
.L30:
	.loc 1 294 10 discriminator 1
	ldr	r3, .L41+4
	ldr	r3, [r3]
	ldr	r3, [r3]
	.loc 1 294 20 discriminator 1
	and	r3, r3, #128
	.loc 1 294 7 discriminator 1
	cmp	r3, #0
	beq	.L30
	.loc 1 295 13
	ldr	r3, .L41+8
	ldr	r3, [r3]
	ldr	r3, [r3]
	.loc 1 295 12
	str	r3, [r7, #12]
	.loc 1 297 2
	ldr	r3, .L41+12
	ldr	r3, [r3]
	.loc 1 297 11
	ldrb	r2, [r7, #6]	@ zero_extendqisi2
	str	r2, [r3]
	.loc 1 299 7
	nop
.L31:
	.loc 1 299 10 discriminator 1
	ldr	r3, .L41+4
	ldr	r3, [r3]
	ldr	r3, [r3]
	.loc 1 299 20 discriminator 1
	and	r3, r3, #128
	.loc 1 299 7 discriminator 1
	cmp	r3, #0
	beq	.L31
	.loc 1 300 6
	ldr	r3, .L41+8
	ldr	r3, [r3]
	ldr	r3, [r3]
	.loc 1 300 5
	str	r3, [r7, #12]
	.loc 1 302 14
	ldr	r3, .L41
	ldr	r3, [r3]
	ldr	r2, [r3]
	.loc 1 302 2
	ldr	r3, .L41
	ldr	r3, [r3]
	.loc 1 302 23
	orr	r2, r2, #256
	.loc 1 302 12
	str	r2, [r3]
	.loc 1 304 7
	nop
.L32:
	.loc 1 304 10 discriminator 1
	ldr	r3, .L41+4
	ldr	r3, [r3]
	ldr	r3, [r3]
	.loc 1 304 20 discriminator 1
	and	r3, r3, #1
	.loc 1 304 7 discriminator 1
	cmp	r3, #0
	beq	.L32
	.loc 1 305 6
	ldr	r3, .L41+8
	ldr	r3, [r3]
	ldr	r3, [r3]
	.loc 1 305 5
	str	r3, [r7, #12]
	.loc 1 308 22
	ldrb	r3, [r7, #7]
	orr	r3, r3, #1
	uxtb	r2, r3
	.loc 1 308 2
	ldr	r3, .L41+12
	ldr	r3, [r3]
	.loc 1 308 11
	str	r2, [r3]
	.loc 1 310 7
	nop
.L33:
	.loc 1 310 10 discriminator 1
	ldr	r3, .L41+4
	ldr	r3, [r3]
	ldr	r3, [r3]
	.loc 1 310 20 discriminator 1
	and	r3, r3, #2
	.loc 1 310 7 discriminator 1
	cmp	r3, #0
	beq	.L33
	.loc 1 311 13
	ldr	r3, .L41+8
	ldr	r3, [r3]
	ldr	r3, [r3]
	.loc 1 311 12
	str	r3, [r7, #12]
	.loc 1 313 14
	movs	r3, #0
	str	r3, [r7, #8]
	.loc 1 313 9
	b	.L34
.L38:
	.loc 1 315 21
	ldrb	r3, [r7, #5]	@ zero_extendqisi2
	subs	r3, r3, #1
	mov	r2, r3
	.loc 1 315 12
	ldr	r3, [r7, #8]
	.loc 1 315 10
	cmp	r2, r3
	bne	.L35
	.loc 1 316 24
	ldr	r3, .L41
	ldr	r3, [r3]
	ldr	r2, [r3]
	.loc 1 316 12
	ldr	r3, .L41
	ldr	r3, [r3]
	.loc 1 316 34
	bic	r2, r2, #1024
	.loc 1 316 22
	str	r2, [r3]
	b	.L40
.L35:
	.loc 1 318 27
	ldr	r3, .L41
	ldr	r3, [r3]
	ldr	r2, [r3]
	.loc 1 318 15
	ldr	r3, .L41
	ldr	r3, [r3]
	.loc 1 318 36
	orr	r2, r2, #1024
	.loc 1 318 25
	str	r2, [r3]
.L40:
	.loc 1 320 14
	nop
.L37:
	.loc 1 320 17 discriminator 1
	ldr	r3, .L41+4
	ldr	r3, [r3]
	ldr	r3, [r3]
	.loc 1 320 27 discriminator 1
	and	r3, r3, #64
	.loc 1 320 14 discriminator 1
	cmp	r3, #0
	beq	.L37
	.loc 1 321 13 discriminator 2
	ldr	r3, .L41+8
	ldr	r3, [r3]
	ldr	r3, [r3]
	.loc 1 321 12 discriminator 2
	str	r3, [r7, #12]
	.loc 1 323 19 discriminator 2
	ldr	r3, .L41+12
	ldr	r3, [r3]
	ldr	r1, [r3]
	.loc 1 323 13 discriminator 2
	ldr	r3, [r7, #8]
	ldr	r2, [r7]
	add	r3, r3, r2
	.loc 1 323 17 discriminator 2
	uxtb	r2, r1
	strb	r2, [r3]
	.loc 1 313 30 discriminator 2
	ldr	r3, [r7, #8]
	adds	r3, r3, #1
	str	r3, [r7, #8]
.L34:
	.loc 1 313 19 discriminator 1
	ldrb	r2, [r7, #5]	@ zero_extendqisi2
	ldr	r3, [r7, #8]
	.loc 1 313 9 discriminator 1
	cmp	r2, r3
	bhi	.L38
	.loc 1 327 14
	ldr	r3, .L41
	ldr	r3, [r3]
	ldr	r2, [r3]
	.loc 1 327 2
	ldr	r3, .L41
	ldr	r3, [r3]
	.loc 1 327 23
	orr	r2, r2, #512
	.loc 1 327 12
	str	r2, [r3]
	.loc 1 328 7
	nop
.L39:
	.loc 1 328 10 discriminator 1
	ldr	r3, .L41+4
	ldr	r3, [r3]
	ldr	r3, [r3]
	.loc 1 328 20 discriminator 1
	and	r3, r3, #16
	.loc 1 328 7 discriminator 1
	cmp	r3, #0
	beq	.L39
	.loc 1 329 1
	nop
	nop
	adds	r7, r7, #20
	.cfi_def_cfa_offset 4
	mov	sp, r7
	.cfi_def_cfa_register 13
	@ sp needed
	ldr	r7, [sp], #4
	.cfi_restore 7
	.cfi_def_cfa_offset 0
	bx	lr
.L42:
	.align	2
.L41:
	.word	I2C1_CR1
	.word	I2C1_SR1
	.word	I2C1_SR2
	.word	I2C1_DR
	.cfi_endproc
.LFE6:
	.size	i2c1_read, .-i2c1_read
	.align	1
	.global	DMA_INIT
	.syntax unified
	.thumb
	.thumb_func
	.type	DMA_INIT, %function
DMA_INIT:
.LFB7:
	.loc 1 332 1
	.cfi_startproc
	@ args = 0, pretend = 0, frame = 0
	@ frame_needed = 1, uses_anonymous_args = 0
	@ link register save eliminated.
	push	{r7}
	.cfi_def_cfa_offset 4
	.cfi_offset 7, -4
	add	r7, sp, #0
	.cfi_def_cfa_register 7
	.loc 1 333 15
	ldr	r3, .L45
	ldr	r3, [r3]
	ldr	r2, [r3]
	.loc 1 333 2
	ldr	r3, .L45
	ldr	r3, [r3]
	.loc 1 333 26
	bic	r2, r2, #1
	.loc 1 333 13
	str	r2, [r3]
	.loc 1 335 7
	nop
.L44:
	.loc 1 335 9 discriminator 1
	ldr	r3, .L45
	ldr	r3, [r3]
	ldr	r3, [r3]
	.loc 1 335 20 discriminator 1
	and	r3, r3, #1
	.loc 1 335 7 discriminator 1
	cmp	r3, #0
	bne	.L44
	.loc 1 337 15
	ldr	r3, .L45
	ldr	r3, [r3]
	ldr	r2, [r3]
	.loc 1 337 2
	ldr	r3, .L45
	ldr	r3, [r3]
	.loc 1 337 26
	bic	r2, r2, #234881024
	.loc 1 337 13
	str	r2, [r3]
	.loc 1 339 15
	ldr	r3, .L45
	ldr	r3, [r3]
	ldr	r2, [r3]
	.loc 1 339 2
	ldr	r3, .L45
	ldr	r3, [r3]
	.loc 1 339 26
	orr	r2, r2, #134217728
	.loc 1 339 13
	str	r2, [r3]
	.loc 1 341 15
	ldr	r3, .L45
	ldr	r3, [r3]
	ldr	r2, [r3]
	.loc 1 341 2
	ldr	r3, .L45
	ldr	r3, [r3]
	.loc 1 341 26
	bic	r2, r2, #32
	.loc 1 341 13
	str	r2, [r3]
	.loc 1 343 15
	ldr	r3, .L45
	ldr	r3, [r3]
	ldr	r2, [r3]
	.loc 1 343 2
	ldr	r3, .L45
	ldr	r3, [r3]
	.loc 1 343 26
	bic	r2, r2, #196608
	.loc 1 343 13
	str	r2, [r3]
	.loc 1 345 16
	ldr	r3, .L45+4
	ldr	r3, [r3]
	ldr	r2, [r3]
	.loc 1 345 2
	ldr	r3, .L45+4
	ldr	r3, [r3]
	.loc 1 345 28
	bic	r2, r2, #4
	.loc 1 345 14
	str	r2, [r3]
	.loc 1 347 15
	ldr	r3, .L45
	ldr	r3, [r3]
	ldr	r2, [r3]
	.loc 1 347 2
	ldr	r3, .L45
	ldr	r3, [r3]
	.loc 1 347 26
	bic	r2, r2, #25165824
	.loc 1 347 13
	str	r2, [r3]
	.loc 1 349 15
	ldr	r3, .L45
	ldr	r3, [r3]
	ldr	r2, [r3]
	.loc 1 349 2
	ldr	r3, .L45
	ldr	r3, [r3]
	.loc 1 349 26
	bic	r2, r2, #6291456
	.loc 1 349 13
	str	r2, [r3]
	.loc 1 351 15
	ldr	r3, .L45
	ldr	r3, [r3]
	ldr	r2, [r3]
	.loc 1 351 2
	ldr	r3, .L45
	ldr	r3, [r3]
	.loc 1 351 26
	bic	r2, r2, #524288
	.loc 1 351 13
	str	r2, [r3]
	.loc 1 353 15
	ldr	r3, .L45
	ldr	r3, [r3]
	ldr	r2, [r3]
	.loc 1 353 2
	ldr	r3, .L45
	ldr	r3, [r3]
	.loc 1 353 26
	bic	r2, r2, #262144
	.loc 1 353 13
	str	r2, [r3]
	.loc 1 355 15
	ldr	r3, .L45
	ldr	r3, [r3]
	ldr	r2, [r3]
	.loc 1 355 2
	ldr	r3, .L45
	ldr	r3, [r3]
	.loc 1 355 26
	bic	r2, r2, #32768
	.loc 1 355 13
	str	r2, [r3]
	.loc 1 357 15
	ldr	r3, .L45
	ldr	r3, [r3]
	ldr	r2, [r3]
	.loc 1 357 2
	ldr	r3, .L45
	ldr	r3, [r3]
	.loc 1 357 26
	bic	r2, r2, #24576
	.loc 1 357 13
	str	r2, [r3]
	.loc 1 359 15
	ldr	r3, .L45
	ldr	r3, [r3]
	ldr	r2, [r3]
	.loc 1 359 2
	ldr	r3, .L45
	ldr	r3, [r3]
	.loc 1 359 26
	bic	r2, r2, #6144
	.loc 1 359 13
	str	r2, [r3]
	.loc 1 361 15
	ldr	r3, .L45
	ldr	r3, [r3]
	ldr	r2, [r3]
	.loc 1 361 2
	ldr	r3, .L45
	ldr	r3, [r3]
	.loc 1 361 26
	orr	r2, r2, #1024
	.loc 1 361 13
	str	r2, [r3]
	.loc 1 363 15
	ldr	r3, .L45
	ldr	r3, [r3]
	ldr	r2, [r3]
	.loc 1 363 2
	ldr	r3, .L45
	ldr	r3, [r3]
	.loc 1 363 26
	bic	r2, r2, #512
	.loc 1 363 13
	str	r2, [r3]
	.loc 1 365 16
	ldr	r3, .L45+8
	ldr	r2, [r3]
	.loc 1 365 2
	ldr	r3, .L45+12
	ldr	r3, [r3]
	.loc 1 365 14
	str	r2, [r3]
	.loc 1 367 15
	ldr	r3, .L45
	ldr	r3, [r3]
	ldr	r2, [r3]
	.loc 1 367 2
	ldr	r3, .L45
	ldr	r3, [r3]
	.loc 1 367 26
	bic	r2, r2, #256
	.loc 1 367 13
	str	r2, [r3]
	.loc 1 369 15
	ldr	r3, .L45
	ldr	r3, [r3]
	ldr	r2, [r3]
	.loc 1 369 2
	ldr	r3, .L45
	ldr	r3, [r3]
	.loc 1 369 26
	bic	r2, r2, #192
	.loc 1 369 13
	str	r2, [r3]
	.loc 1 371 15
	ldr	r3, .L45
	ldr	r3, [r3]
	ldr	r2, [r3]
	.loc 1 371 2
	ldr	r3, .L45
	ldr	r3, [r3]
	.loc 1 371 26
	orr	r2, r2, #64
	.loc 1 371 13
	str	r2, [r3]
	.loc 1 372 1
	nop
	mov	sp, r7
	.cfi_def_cfa_register 13
	@ sp needed
	ldr	r7, [sp], #4
	.cfi_restore 7
	.cfi_def_cfa_offset 0
	bx	lr
.L46:
	.align	2
.L45:
	.word	DMA1_S6CR
	.word	DMA1_S6FCR
	.word	USART2_DR
	.word	DMA1_S6PAR
	.cfi_endproc
.LFE7:
	.size	DMA_INIT, .-DMA_INIT
	.align	1
	.global	DMA1_SEND
	.syntax unified
	.thumb
	.thumb_func
	.type	DMA1_SEND, %function
DMA1_SEND:
.LFB8:
	.loc 1 374 1
	.cfi_startproc
	@ args = 0, pretend = 0, frame = 8
	@ frame_needed = 1, uses_anonymous_args = 0
	@ link register save eliminated.
	push	{r7}
	.cfi_def_cfa_offset 4
	.cfi_offset 7, -4
	sub	sp, sp, #12
	.cfi_def_cfa_offset 16
	add	r7, sp, #0
	.cfi_def_cfa_register 7
	str	r0, [r7, #4]
	str	r1, [r7]
	.loc 1 375 15
	ldr	r3, .L50
	ldr	r3, [r3]
	ldr	r2, [r3]
	.loc 1 375 2
	ldr	r3, .L50
	ldr	r3, [r3]
	.loc 1 375 26
	bic	r2, r2, #64
	.loc 1 375 13
	str	r2, [r3]
	.loc 1 377 15
	ldr	r3, .L50+4
	ldr	r3, [r3]
	ldr	r2, [r3]
	.loc 1 377 2
	ldr	r3, .L50+4
	ldr	r3, [r3]
	.loc 1 377 26
	bic	r2, r2, #1
	.loc 1 377 13
	str	r2, [r3]
	.loc 1 379 7
	nop
.L48:
	.loc 1 379 9 discriminator 1
	ldr	r3, .L50+4
	ldr	r3, [r3]
	ldr	r3, [r3]
	.loc 1 379 20 discriminator 1
	and	r3, r3, #1
	.loc 1 379 7 discriminator 1
	cmp	r3, #0
	bne	.L48
	.loc 1 381 2
	ldr	r3, .L50+8
	ldr	r3, [r3]
	.loc 1 381 15
	ldr	r2, [r7, #4]
	str	r2, [r3]
	.loc 1 383 2
	ldr	r3, .L50+12
	ldr	r3, [r3]
	.loc 1 383 15
	ldr	r2, [r7]
	str	r2, [r3]
	.loc 1 385 15
	ldr	r3, .L50+4
	ldr	r3, [r3]
	ldr	r2, [r3]
	.loc 1 385 2
	ldr	r3, .L50+4
	ldr	r3, [r3]
	.loc 1 385 26
	orr	r2, r2, #1
	.loc 1 385 13
	str	r2, [r3]
	.loc 1 387 7
	nop
.L49:
	.loc 1 387 10 discriminator 1
	ldr	r3, .L50+16
	ldr	r3, [r3]
	ldr	r3, [r3]
	.loc 1 387 21 discriminator 1
	and	r3, r3, #2097152
	.loc 1 387 7 discriminator 1
	cmp	r3, #0
	beq	.L49
	.loc 1 389 2
	ldr	r3, .L50+20
	ldr	r3, [r3]
	.loc 1 389 14
	mov	r2, #3145728
	str	r2, [r3]
	.loc 1 390 1
	nop
	adds	r7, r7, #12
	.cfi_def_cfa_offset 4
	mov	sp, r7
	.cfi_def_cfa_register 13
	@ sp needed
	ldr	r7, [sp], #4
	.cfi_restore 7
	.cfi_def_cfa_offset 0
	bx	lr
.L51:
	.align	2
.L50:
	.word	USART2_SR
	.word	DMA1_S6CR
	.word	DMA1_S6M0AR
	.word	DMA1_S6NDTR
	.word	DMA1_HISR
	.word	DMA1_HIFCR
	.cfi_endproc
.LFE8:
	.size	DMA1_SEND, .-DMA1_SEND
.Letext0: